                             //
                             // CODE 
                             // CODE: CODE:0000-CODE:1fff
                             //
                             **************************************************************
                             *                          FUNCTION                          *
                             **************************************************************
                             undefined RESET()
             undefined         A:1            <RETURN>
                             RESET                                           XREF[1]:     Entry Point(*)  
       CODE:0000 e5              SEL        MB0
       CODE:0001 04 b8           JMP        LAB_CODE_00b8
                             **************************************************************
                             *                          FUNCTION                          *
                             **************************************************************
                             undefined EXTIRQ()
             undefined         A:1            <RETURN>
                             EXTIRQ                                          XREF[1]:     Entry Point(*)  
       CODE:0003 a5              CLR        F1
       CODE:0004 b5              CPL        F1
       CODE:0005 76 31           JF1        HallPulse
                             **************************************************************
                             *                          FUNCTION                          *
                             **************************************************************
                             undefined TIMIRQ()
             undefined         A:1            <RETURN>
                             TIMIRQ                                          XREF[2]:     Entry Point(*), EXTIRQ:0036(j)  
       CODE:0007 d5              SEL        RB1
       CODE:0008 aa              MOV        R2,A
       CODE:0009 b9 20           MOV        R1,#0x20
       CODE:000b 11              INC        @R1=>DAT_INTMEM_20                               = ??
       CODE:000c f1              MOV        A,@R1=>DAT_INTMEM_20                             = ??
       CODE:000d 37              CPL        A
       CODE:000e d2 15           JB0x6      LAB_CODE_0015
       CODE:0010 89 10           ORL        P1,#0x10
       CODE:0012 b1 3f           MOV        @R1=>DAT_INTMEM_20,#0x3f                         = ??
       CODE:0014 00              NOP
                             LAB_CODE_0015                                   XREF[1]:     CODE:000e(j)  
       CODE:0015 b9 3c           MOV        R1,#0x3c
       CODE:0017 f1              MOV        A,@R1=>DAT_INTMEM_3c                             = ??
       CODE:0018 c6 1f           JZ         LAB_CODE_001f
       CODE:001a 07              DEC        A
       CODE:001b a1              MOV        @R1=>DAT_INTMEM_3c,A                             = ??
       CODE:001c 27              CLR        A
       CODE:001d c6 28           JZ         LAB_CODE_0028
                             LAB_CODE_001f                                   XREF[1]:     CODE:0018(j)  
       CODE:001f b9 3a           MOV        R1,#0x3a
       CODE:0021 f1              MOV        A,@R1=>DAT_INTMEM_3a                             = ??
       CODE:0022 a9              MOV        R1,A
       CODE:0023 19              INC        R1
                             LAB_CODE_0024                                   XREF[1]:     CODE:0024(j)  
       CODE:0024 e9 24           DJNZ       R1,LAB_CODE_0024
       CODE:0026 89 20           ORL        P1,#0x20
                             LAB_CODE_0028                                   XREF[1]:     CODE:001d(j)  
       CODE:0028 fa              MOV        A,R2
       CODE:0029 16 30           JTF        InterruptExit
       CODE:002b 35              DIS        TCNTI
       CODE:002c 25              EN         TCNTI
       CODE:002d 27              CLR        A
       CODE:002e c6 38           JZ         LAB_CODE_0038
                             **************************************************************
                             *                          FUNCTION                          *
                             **************************************************************
                             undefined InterruptExit()
                               assume membank = 0x0
             undefined         A:1            <RETURN>
                             InterruptExit                                   XREF[3]:     TIMIRQ:0029(j), TIMIRQ:0040(c), 
                                                                                          RESET:0505(c)  
       CODE:0030 93              RETR
                             HallPulse                                       XREF[1]:     CODE:0005(j)  
       CODE:0031 99 fe           ANL        P1,#0xfe
       CODE:0033 d5              SEL        RB1
       CODE:0034 af              MOV        R7,A                                             Store A in R7
       CODE:0035 42              MOV        A,T
       CODE:0036 16 07           JTF        TIMIRQ
                             LAB_CODE_0038                                   XREF[1]:     CODE:002e(j)  
       CODE:0038 ae              MOV        R6,A                                             R6 = Timer value
       CODE:0039 27              CLR        A
       CODE:003a b8 20           MOV        R0,#0x20
       CODE:003c 20              XCH        A,@R0=>DAT_INTMEM_20                             R0 = 0 | A = 0x20
       CODE:003d ad              MOV        R5,A                                             R5 = 0x20
                             LAB_CODE_003e                                   XREF[1]:     CODE:003e(j)  
       CODE:003e 86 3e           JNI        LAB_CODE_003e                                    Wait for trigger wheel to pass
       CODE:0040 14 30           CALL       InterruptExit                                    undefined InterruptExit()
       CODE:0042 b8 3b           MOV        R0,#0x3b
       CODE:0044 fe              MOV        A,R6                                             A = Timer Value
       CODE:0045 20              XCH        A,@R0=>DAT_INTMEM_3b                             A = 0 | R0 = Timer value
       CODE:0046 c6 4f           JZ         LAB_CODE_004f                                    JMP first run
       CODE:0048 37              CPL        A
       CODE:0049 17              INC        A
       CODE:004a 6e              ADD        A,R6
       CODE:004b ae              MOV        R6,A
       CODE:004c f6 4f           JC         LAB_CODE_004f
       CODE:004e cd              DEC        R5
                             LAB_CODE_004f                                   XREF[2]:     CODE:0046(j), CODE:004c(j)  
       CODE:004f fe              MOV        A,R6                                             A = Timer value
       CODE:0050 6e              ADD        A,R6                                             A = Timer Value (x2)
       CODE:0051 ae              MOV        R6,A                                             R6 = Double timer Value
       CODE:0052 fd              MOV        A,R5                                             A = 0x20
       CODE:0053 7d              ADDC       A,R5
       CODE:0054 ad              MOV        R5,A
       CODE:0055 bc 74           MOV        R4,#0x74
       CODE:0057 b8 28           MOV        R0,#0x28
       CODE:0059 f0              MOV        A,@R0=>DAT_INTMEM_28                             = ??
       CODE:005a 12 5e           JB0x0      LAB_CODE_005e
       CODE:005c bc 7a           MOV        R4,#0x7a
                             LAB_CODE_005e                                   XREF[1]:     CODE:005a(j)  
       CODE:005e fc              MOV        A,R4
       CODE:005f 6e              ADD        A,R6
       CODE:0060 f6 63           JC         LAB_CODE_0063
       CODE:0062 cd              DEC        R5
                             LAB_CODE_0063                                   XREF[1]:     CODE:0060(j)  
       CODE:0063 ae              MOV        R6,A
       CODE:0064 fd              MOV        A,R5
       CODE:0065 37              CPL        A
       CODE:0066 f2 6f           JB0x7      LAB_CODE_006f
       CODE:0068 27              CLR        A
       CODE:0069 ad              MOV        R5,A
       CODE:006a ae              MOV        R6,A
       CODE:006b b8 27           MOV        R0,#0x27
       CODE:006d b0 05           MOV        @R0=>DAT_INTMEM_27,#0x5                          = ??
                             LAB_CODE_006f                                   XREF[1]:     CODE:0066(j)  
       CODE:006f fe              MOV        A,R6
       CODE:0070 b8 25           MOV        R0,#0x25
       CODE:0072 a0              MOV        @R0=>DAT_INTMEM_25,A                             = ??
       CODE:0073 fd              MOV        A,R5
       CODE:0074 18              INC        R0
       CODE:0075 a0              MOV        @R0=>DAT_INTMEM_26,A                             = ??
       CODE:0076 89 01           ORL        P1,#0x1
       CODE:0078 b8 27           MOV        R0,#0x27
       CODE:007a f0              MOV        A,@R0=>DAT_INTMEM_27                             = ??
       CODE:007b c6 81           JZ         LAB_CODE_0081
       CODE:007d 07              DEC        A
       CODE:007e a0              MOV        @R0=>DAT_INTMEM_27,A                             = ??
       CODE:007f 96 b6           JNZ        LAB_CODE_00b6
                             LAB_CODE_0081                                   XREF[1]:     CODE:007b(j)  
       CODE:0081 b8 22           MOV        R0,#0x22
       CODE:0083 f0              MOV        A,@R0=>AC?                                       = ??
       CODE:0084 37              CPL        A
       CODE:0085 12 93           JB0x0      LAB_CODE_0093
       CODE:0087 b8 61           MOV        R0,#0x61
       CODE:0089 f0              MOV        A,@R0=>DAT_INTMEM_61                             = ??
       CODE:008a 96 93           JNZ        LAB_CODE_0093
       CODE:008c b8 28           MOV        R0,#0x28
       CODE:008e f0              MOV        A,@R0=>DAT_INTMEM_28                             = ??
       CODE:008f 10              INC        @R0=>DAT_INTMEM_28                               = ??
       CODE:0090 37              CPL        A
       CODE:0091 12 b6           JB0x0      LAB_CODE_00b6
                             LAB_CODE_0093                                   XREF[2]:     CODE:0085(j), CODE:008a(j)  
       CODE:0093 65              STOP       TCNT
       CODE:0094 35              DIS        TCNTI
       CODE:0095 25              EN         TCNTI
       CODE:0096 16 98           JTF        LAB_CODE_0098
                             LAB_CODE_0098                                   XREF[1]:     CODE:0096(j)  
       CODE:0098 b8 2c           MOV        R0,#0x2c
       CODE:009a b9 3a           MOV        R1,#0x3a
       CODE:009c f0              MOV        A,@R0=>DAT_INTMEM_2c                             = ??
       CODE:009d a1              MOV        @R1=>DAT_INTMEM_3a,A                             = ??
       CODE:009e c8              DEC        R0
       CODE:009f f0              MOV        A,@R0=>DAT_INTMEM_2b                             = ??
       CODE:00a0 37              CPL        A
       CODE:00a1 17              INC        A
       CODE:00a2 62              MOV        T,A
       CODE:00a3 19              INC        R1
       CODE:00a4 a1              MOV        @R1=>DAT_INTMEM_3b,A                             = ??
       CODE:00a5 c8              DEC        R0
       CODE:00a6 03 ff           ADD        A,#0xff
       CODE:00a8 27              CLR        A
       CODE:00a9 70              ADDC       A,@R0=>DAT_INTMEM_2a                             = ??
       CODE:00aa 07              DEC        A
       CODE:00ab f2 b1           JB0x7      LAB_CODE_00b1
       CODE:00ad 19              INC        R1
       CODE:00ae a1              MOV        @R1=>DAT_INTMEM_3c,A                             = ??
       CODE:00af 99 cf           ANL        P1,#0xcf
                             LAB_CODE_00b1                                   XREF[1]:     CODE:00ab(j)  
       CODE:00b1 b8 20           MOV        R0,#0x20
       CODE:00b3 b0 00           MOV        @R0=>DAT_INTMEM_20,#0x0                          = ??
       CODE:00b5 55              STRT       T
                             LAB_CODE_00b6                                   XREF[2]:     CODE:007f(j), CODE:0091(j)  
       CODE:00b6 ff              MOV        A,R7
       CODE:00b7 93              RETR                                                        END OF ROTUINE
                             LAB_CODE_00b8                                   XREF[1]:     CODE:0001(j)  
       CODE:00b8 99 ee           ANL        P1,#11101110b                                    Hall Sense Off, DAC OFF, Fuel Pu
       CODE:00ba 55              STRT       T                                                Start Timer, Increment every 65 uS
       CODE:00bb 25              EN         TCNTI
       CODE:00bc 85              CLR        F0
       CODE:00bd 95              CPL        F0
       CODE:00be b8 7f           MOV        R0,#0x7f
       CODE:00c0 f0              MOV        A,@R0=>DAT_INTMEM_7f                             = ??
       CODE:00c1 03 ed           ADD        A,#0xed
       CODE:00c3 c6 d8           JZ         LAB_CODE_00d8                                    First run: No JMP
                                                                                             RUS: Jump on Soft RST
       CODE:00c5 b0 13           MOV        @R0=>DAT_INTMEM_7f,#0x13                         = ??
       CODE:00c7 85              CLR        F0
       CODE:00c8 23 10           MOV        A,#0x10
                             LAB_CODE_00ca                                   XREF[1]:     CODE:00d6(j)  
       CODE:00ca b8 7e           MOV        R0,#0x7e
                             LAB_CODE_00cc                                   XREF[1]:     CODE:00d1(j)  
       CODE:00cc 99 bf           ANL        P1,#0xbf                                         Clock WDT
       CODE:00ce a0              MOV        @R0=>DAT_INTMEM_7e,A                             INT7e = 0x10
       CODE:00cf 89 40           ORL        P1,#0x40                                         Clock WDT
       CODE:00d1 e8 cc           DJNZ       R0,LAB_CODE_00cc                                 Loop 126 times
       CODE:00d3 c6 d8           JZ         LAB_CODE_00d8
       CODE:00d5 07              DEC        A
       CODE:00d6 04 ca           JMP        LAB_CODE_00ca                                    Loop 16 times
                             LAB_CODE_00d8                                   XREF[2]:     CODE:00c3(j), CODE:00d3(j)  
       CODE:00d8 07              DEC        A                                                A = 0xFF
       CODE:00d9 b8 23           MOV        R0,#0x23
       CODE:00db b9 04           MOV        R1,#0x4
                             LAB_CODE_00dd                                   XREF[1]:     CODE:00df(j)  
       CODE:00dd a0              MOV        @R0=>DAT_INTMEM_23,A                             = ??
       CODE:00de 18              INC        R0
       CODE:00df e9 dd           DJNZ       R1,LAB_CODE_00dd                                 Set INT23, INT24, INT25, INT26 =
       CODE:00e1 b8 56           MOV        R0,#0x56
       CODE:00e3 a0              MOV        @R0=>DAT_INTMEM_56,A                             INT56 = 0xFF
       CODE:00e4 b8 3f           MOV        R0,#0x3f
       CODE:00e6 b0 01           MOV        @R0=>DAT_INTMEM_3f,#0x1                          = ??
       CODE:00e8 b8 54           MOV        R0,#0x54
       CODE:00ea b0 01           MOV        @R0=>DAT_INTMEM_54,#0x1                          = ??
       CODE:00ec b8 32           MOV        R0,#0x32
       CODE:00ee b0 20           MOV        @R0=>DAT_INTMEM_32,#0x20                         = ??
       CODE:00f0 18              INC        R0
       CODE:00f1 b0 20           MOV        @R0=>DAT_INTMEM_33,#0x20                         = ??
       CODE:00f3 0a              IN         A,P2=>P2                                         Read Port 2 into accumulator
       CODE:00f4 92 f8           JB0x4      LAB_CODE_00f8                                    Chek we have +5v (we do)
       CODE:00f6 9a ef           ANL        P2,#0xef                                         You can't get to this???
                             LAB_CODE_00f8                                   XREF[1]:     CODE:00f4(j)  
       CODE:00f8 b8 43           MOV        R0,#0x43
       CODE:00fa b0 80           MOV        @R0=>DAT_INTMEM_43,#0x80                         = ??
       CODE:00fc b8 3d           MOV        R0,#0x3d
       CODE:00fe b0 20           MOV        @R0=>DAT_INTMEM_3d,#0x20                         = ??
       CODE:0100 b8 36           MOV        R0,#0x36                                         Select INT to store ADC value
       CODE:0102 9a f8           ANL        P2,#0xf8
       CODE:0104 8a 02           ORL        P2,#0x2                                          Engine Coolant temperature sensor
       CODE:0106 b4 b8           CALL       ReadADC                                          Trigger ADC
       CODE:0108 8a 03           ORL        P2,#0x3                                          Select IAT to read
       CODE:010a b4 b8           CALL       ReadADC                                          Trigger ADC
       CODE:010c b9 37           MOV        R1,#0x37
       CODE:010e 81              MOVX       A,@R1=>DAT_EXTMEM_37                             Also reading ADC, A = IAT
       CODE:010f a1              MOV        @R1=>IAT,A                                       = ??
       CODE:0110 ad              MOV        R5,A                                             R5 = IAT
       CODE:0111 99 bf           ANL        P1,#0xbf                                         Clock WDT
       CODE:0113 f0              MOV        A,@R0=>ECT                                       = ??
       CODE:0114 ae              MOV        R6,A                                             R6 = ECT
       CODE:0115 03 f6           ADD        A,#0xf6
       CODE:0117 f6 20           JC         LAB_CODE_0120                                    If engine is (Below 85) then JMP
       CODE:0119 b8 5e           MOV        R0,#0x5e
       CODE:011b b0 03           MOV        @R0=>DAT_INTMEM_5e,#0x3                          Some hot setting stuff
       CODE:011d 18              INC        R0
       CODE:011e b0 80           MOV        @R0=>DAT_INTMEM_5f,#0x80                         = ??
                             LAB_CODE_0120                                   XREF[1]:     CODE:0117(j)  
       CODE:0120 fe              MOV        A,R6
       CODE:0121 03 fa           ADD        A,#0xfa
       CODE:0123 f6 3b           JC         LAB_CODE_013b                                    If engine is (Below 105) JMP
       CODE:0125 fd              MOV        A,R5
       CODE:0126 03 c0           ADD        A,#0xc0
       CODE:0128 f6 3b           JC         LAB_CODE_013b                                    If intake air (Below 18) then JMP
       CODE:012a 03 3f           ADD        A,#0x3f
       CODE:012c e6 3b           JNC        LAB_CODE_013b                                    Sensor Fault(Short)? JMP
       CODE:012e fd              MOV        A,R5                                             IAT must be < 63
       CODE:012f b8 ce           MOV        R0,#0xce                                         Memory offset for Map
       CODE:0131 f4 0b           CALL       LookupA                                          Lookup IAT in map
       CODE:0133 b4 d5           CALL       FUN_CODE_05d5                                    undefined FUN_CODE_05d5()
       CODE:0135 b8 48           MOV        R0,#0x48
       CODE:0137 a0              MOV        @R0=>DAT_INTMEM_48,A                             = ??
       CODE:0138 18              INC        R0
       CODE:0139 b0 7f           MOV        @R0=>DAT_INTMEM_49,#0x7f                         = ??
                             LAB_CODE_013b                                   XREF[3]:     CODE:0123(j), CODE:0128(j), 
                                                                                          CODE:012c(j)  
       CODE:013b b9 47           MOV        R1,#0x47
       CODE:013d b1 d0           MOV        @R1=>DAT_INTMEM_47,#0xd0                         = ??
       CODE:013f fd              MOV        A,R5
       CODE:0140 03 ba           ADD        A,#0xba
       CODE:0142 f6 49           JC         LAB_CODE_0149                                    If intake air < 30 JMP
       CODE:0144 fe              MOV        A,R6
       CODE:0145 03 ba           ADD        A,#0xba
       CODE:0147 e6 4b           JNC        LAB_CODE_014b
                             LAB_CODE_0149                                   XREF[1]:     CODE:0142(j)  
       CODE:0149 b1 f0           MOV        @R1=>DAT_INTMEM_47,#0xf0                         = ??
                             LAB_CODE_014b                                   XREF[1]:     CODE:0147(j)  
       CODE:014b b8 25           MOV        R0,#0x25                                         ECT Map
       CODE:014d f4 08           CALL       ReadECTMap                                       undefined ReadECTMap(void)
       CODE:014f b4 d5           CALL       FUN_CODE_05d5                                    undefined FUN_CODE_05d5()
       CODE:0151 b8 2f           MOV        R0,#0x2f
       CODE:0153 a0              MOV        @R0=>DAT_INTMEM_2f,A                             = ??
       CODE:0154 b6 65           JF0        LAB_CODE_0165
       CODE:0156 b8 47           MOV        R0,#0x47
       CODE:0158 f4 08           CALL       ReadECTMap                                       undefined ReadECTMap(void)
       CODE:015a b4 d5           CALL       FUN_CODE_05d5                                    undefined FUN_CODE_05d5()
       CODE:015c b8 30           MOV        R0,#0x30
       CODE:015e a0              MOV        @R0=>DAT_INTMEM_30,A                             = ??
       CODE:015f 47              SWAP       A
       CODE:0160 53 0f           ANL        A,#0xf
       CODE:0162 37              CPL        A
       CODE:0163 18              INC        R0
       CODE:0164 a0              MOV        @R0=>DAT_INTMEM_31,A                             = ??
                             LAB_CODE_0165                                   XREF[1]:     CODE:0154(j)  
       CODE:0165 f5              SEL        MB1
       CODE:0166 74 44           CALL       FUN_CODE_0b44                                    undefined FUN_CODE_0b44()
       CODE:0168 b8 d5           MOV        R0,#0xd5
       CODE:016a b4 77           CALL       FUN_CODE_0d77                                    undefined FUN_CODE_0d77()
       CODE:016c e5              SEL        MB0
       CODE:016d b8 57           MOV        R0,#0x57
       CODE:016f a0              MOV        @R0=>DAT_INTMEM_57,A                             = ??
       CODE:0170 18              INC        R0
       CODE:0171 b0 30           MOV        @R0=>DAT_INTMEM_58,#0x30                         = ??
       CODE:0173 89 01           ORL        P1,#0x1
                             LAB_CODE_0175                                   XREF[1]:     CODE:056e(j)  
       CODE:0175 89 40           ORL        P1,#0x40
       CODE:0177 f5              SEL        MB1
       CODE:0178 84 87           JMP        LAB_CODE_0c87
                             LAB_CODE_017a                                   XREF[1]:     CODE:0d36(j)  
       CODE:017a f5              SEL        MB1
       CODE:017b 74 51           CALL       FUN_CODE_0b51                                    undefined FUN_CODE_0b51()
       CODE:017d e5              SEL        MB0
       CODE:017e be 06           MOV        R6,#0x6
       CODE:0180 bf dc           MOV        R7,#0xdc
       CODE:0182 b8 30           MOV        R0,#0x30
       CODE:0184 f0              MOV        A,@R0=>DAT_INTMEM_30                             = ??
       CODE:0185 53 c0           ANL        A,#0xc0
       CODE:0187 47              SWAP       A
       CODE:0188 77              RR         A
       CODE:0189 77              RR         A
       CODE:018a aa              MOV        R2,A
       CODE:018b f0              MOV        A,@R0=>DAT_INTMEM_30                             = ??
       CODE:018c 53 3f           ANL        A,#0x3f
       CODE:018e e7              RL         A
       CODE:018f e7              RL         A
       CODE:0190 ab              MOV        R3,A
       CODE:0191 b4 c7           CALL       FUN_CODE_05c7                                    undefined FUN_CODE_05c7()
       CODE:0193 b8 58           MOV        R0,#0x58
       CODE:0195 f4 08           CALL       ReadECTMap                                       undefined ReadECTMap(void)
       CODE:0197 b4 e9           CALL       FUN_CODE_05e9                                    undefined FUN_CODE_05e9()
       CODE:0199 b4 c7           CALL       FUN_CODE_05c7                                    undefined FUN_CODE_05c7()
       CODE:019b 84 ba           JMP        LAB_CODE_04ba
                             LAB_CODE_019d                                   XREF[1]:     CODE:0d39(j)  
       CODE:019d b8 4f           MOV        R0,#0x4f
       CODE:019f b0 00           MOV        @R0=>DAT_INTMEM_4f,#0x0                          = ??
       CODE:01a1 b8 38           MOV        R0,#0x38
       CODE:01a3 9a f8           ANL        P2,#0xf8                                         I'm assuming ADC address is 0 
       CODE:01a5 b4 b8           CALL       ReadADC                                          Start Conversion AN0
       CODE:01a7 b8 34           MOV        R0,#0x34
       CODE:01a9 8a 01           ORL        P2,#0x1
       CODE:01ab b4 b8           CALL       ReadADC                                          Read AN0 - VAF - INTMEM 0x34
                                                                                             Start conversion for AN1
       CODE:01ad 18              INC        R0                                               R0 = 0x35
       CODE:01ae 9a f8           ANL        P2,#0xf8
       CODE:01b0 8a 02           ORL        P2,#0x2
       CODE:01b2 b4 b8           CALL       ReadADC                                          Read AN1 - UBATT - INTMEM 0x35
                                                                                             Start converstion AN2
       CODE:01b4 18              INC        R0                                               R0 = 0x36
       CODE:01b5 8a 03           ORL        P2,#0x3
       CODE:01b7 b4 b8           CALL       ReadADC                                          Read AN2 - ECT - INTMEM 0x36
                                                                                             Start converstion AN3
       CODE:01b9 18              INC        R0
       CODE:01ba 9a f8           ANL        P2,#0xf8
       CODE:01bc 8a 05           ORL        P2,#0x5
       CODE:01be b4 b8           CALL       ReadADC                                          Read AN3 - IAT - INTMEM 0x37
                                                                                             Start converstion AN5
       CODE:01c0 b8 22           MOV        R0,#0x22
       CODE:01c2 f0              MOV        A,@R0=>AC?                                       = ??
       CODE:01c3 53 89           ANL        A,#0x89
       CODE:01c5 a0              MOV        @R0=>AC?,A                                       = ??
       CODE:01c6 46 cb           JNT1       LAB_CODE_01cb
       CODE:01c8 43 40           ORL        A,#0x40
       CODE:01ca a0              MOV        @R0=>AC?,A                                       = ??
                             LAB_CODE_01cb                                   XREF[1]:     CODE:01c6(j)  
       CODE:01cb b9 38           MOV        R1,#0x38
       CODE:01cd f1              MOV        A,@R1=>DAT_INTMEM_38                             = ??
       CODE:01ce 03 80           ADD        A,#0x80
       CODE:01d0 f6 da           JC         LAB_CODE_01da
       CODE:01d2 03 70           ADD        A,#0x70
       CODE:01d4 e6 da           JNC        LAB_CODE_01da
       CODE:01d6 f0              MOV        A,@R0=>AC?                                       = ??
       CODE:01d7 43 10           ORL        A,#0x10
       CODE:01d9 a0              MOV        @R0=>AC?,A                                       = ??
                             LAB_CODE_01da                                   XREF[2]:     CODE:01d0(j), CODE:01d4(j)  
       CODE:01da 36 ec           JT0        LAB_CODE_01ec                                    WOT/IDLE - Check RPM?
       CODE:01dc b9 34           MOV        R1,#0x34
       CODE:01de f1              MOV        A,@R1=>VAF                                       = ??
       CODE:01df 03 90           ADD        A,#0x90
       CODE:01e1 23 02           MOV        A,#0x2
       CODE:01e3 e6 ea           JNC        LAB_CODE_01ea
       CODE:01e5 e7              RL         A
       CODE:01e6 b9 4f           MOV        R1,#0x4f
       CODE:01e8 b1 e0           MOV        @R1=>DAT_INTMEM_4f,#0xe0                         = ??
                             LAB_CODE_01ea                                   XREF[1]:     CODE:01e3(j)  
       CODE:01ea 40              ORL        A,@R0=>AC?                                       = ??
       CODE:01eb a0              MOV        @R0=>AC?,A                                       = ??
                             LAB_CODE_01ec                                   XREF[1]:     CODE:01da(j)  
       CODE:01ec 99 bf           ANL        P1,#0xbf
       CODE:01ee 18              INC        R0
       CODE:01ef f0              MOV        A,@R0=>DAT_INTMEM_23                             = ??
       CODE:01f0 03 c0           ADD        A,#0xc0
       CODE:01f2 e6 f8           JNC        LAB_CODE_01f8
       CODE:01f4 f5              SEL        MB1
       CODE:01f5 14 ce           CALL       idleValve                                        undefined idleValve(void)
       CODE:01f7 e5              SEL        MB0
                             LAB_CODE_01f8                                   XREF[1]:     CODE:01f2(j)  
       CODE:01f8 b8 22           MOV        R0,#0x22
       CODE:01fa f0              MOV        A,@R0=>AC?                                       = ??
       CODE:01fb 85              CLR        F0
       CODE:01fc 32 ff           JB0x1      LAB_CODE_01ff
       CODE:01fe 95              CPL        F0
                             LAB_CODE_01ff                                   XREF[1]:     CODE:01fc(j)  
       CODE:01ff b9 34           MOV        R1,#0x34
       CODE:0201 f1              MOV        A,@R1=>VAF                                       = ??
       CODE:0202 ad              MOV        R5,A
       CODE:0203 b8 d3           MOV        R0,#0xd3
       CODE:0205 b9 23           MOV        R1,#0x23
       CODE:0207 f4 0a           CALL       LookupR1Mem                                      undefined LookupR1Mem()
       CODE:0209 b4 d5           CALL       FUN_CODE_05d5                                    undefined FUN_CODE_05d5()
       CODE:020b ac              MOV        R4,A
       CODE:020c 37              CPL        A
       CODE:020d 17              INC        A
       CODE:020e 6d              ADD        A,R5
       CODE:020f e6 13           JNC        LAB_CODE_0213
       CODE:0211 fc              MOV        A,R4
       CODE:0212 ad              MOV        R5,A
                             LAB_CODE_0213                                   XREF[1]:     CODE:020f(j)  
       CODE:0213 b8 32           MOV        R0,#0x32
       CODE:0215 fd              MOV        A,R5
       CODE:0216 20              XCH        A,@R0=>DAT_INTMEM_32                             = ??
       CODE:0217 ae              MOV        R6,A
       CODE:0218 b9 39           MOV        R1,#0x39
       CODE:021a 21              XCH        A,@R1=>DAT_INTMEM_39                             = ??
       CODE:021b ac              MOV        R4,A
       CODE:021c fe              MOV        A,R6
       CODE:021d 37              CPL        A
       CODE:021e 17              INC        A
       CODE:021f 6d              ADD        A,R5
       CODE:0220 af              MOV        R7,A
       CODE:0221 c6 97           JZ         LAB_CODE_0297
       CODE:0223 f6 39           JC         LAB_CODE_0239
       CODE:0225 fe              MOV        A,R6
       CODE:0226 47              SWAP       A
       CODE:0227 00              NOP
       CODE:0228 53 0f           ANL        A,#0xf
       CODE:022a ab              MOV        R3,A
       CODE:022b 6f              ADD        A,R7
       CODE:022c f6 97           JC         LAB_CODE_0297
       CODE:022e fb              MOV        A,R3
       CODE:022f 96 33           JNZ        LAB_CODE_0233
       CODE:0231 23 01           MOV        A,#0x1
                             LAB_CODE_0233                                   XREF[1]:     CODE:022f(j)  
       CODE:0233 37              CPL        A
       CODE:0234 17              INC        A
       CODE:0235 6e              ADD        A,R6
       CODE:0236 a0              MOV        @R0=>DAT_INTMEM_32,A                             = ??
       CODE:0237 44 97           JMP        LAB_CODE_0297
                             LAB_CODE_0239                                   XREF[1]:     CODE:0223(j)  
       CODE:0239 b6 41           JF0        LAB_CODE_0241
       CODE:023b b8 2d           MOV        R0,#0x2d
       CODE:023d b0 00           MOV        @R0=>DAT_INTMEM_2d,#0x0                          = ??
       CODE:023f 44 97           JMP        LAB_CODE_0297
                             LAB_CODE_0241                                   XREF[1]:     CODE:0239(j)  
       CODE:0241 fc              MOV        A,R4
       CODE:0242 37              CPL        A
       CODE:0243 17              INC        A
       CODE:0244 6d              ADD        A,R5
       CODE:0245 e6 51           JNC        LAB_CODE_0251
       CODE:0247 c6 51           JZ         LAB_CODE_0251
       CODE:0249 ac              MOV        R4,A
       CODE:024a 37              CPL        A
       CODE:024b 17              INC        A
       CODE:024c 6f              ADD        A,R7
       CODE:024d f6 51           JC         LAB_CODE_0251
       CODE:024f fc              MOV        A,R4
       CODE:0250 af              MOV        R7,A
                             LAB_CODE_0251                                   XREF[3]:     CODE:0245(j), CODE:0247(j), 
                                                                                          CODE:024d(j)  
       CODE:0251 fe              MOV        A,R6
       CODE:0252 b8 9c           MOV        R0,#0x9c
       CODE:0254 f4 1f           CALL       MAGIC7S                                          undefined MAGIC7S(void)
       CODE:0256 aa              MOV        R2,A
       CODE:0257 b9 36           MOV        R1,#0x36
       CODE:0259 f1              MOV        A,@R1=>ECT                                       = ??
       CODE:025a 03 f0           ADD        A,#0xf0
       CODE:025c fa              MOV        A,R2
       CODE:025d e6 60           JNC        LAB_CODE_0260
       CODE:025f 67              RRC        A
                             LAB_CODE_0260                                   XREF[1]:     CODE:025d(j)  
       CODE:0260 6f              ADD        A,R7
       CODE:0261 e6 97           JNC        LAB_CODE_0297
       CODE:0263 b8 ac           MOV        R0,#0xac
       CODE:0265 f4 08           CALL       ReadECTMap                                       undefined ReadECTMap(void)
       CODE:0267 b4 d5           CALL       FUN_CODE_05d5                                    undefined FUN_CODE_05d5()
       CODE:0269 ab              MOV        R3,A
       CODE:026a ae              MOV        R6,A
       CODE:026b ba 00           MOV        R2,#0x0
       CODE:026d ff              MOV        A,R7
       CODE:026e 37              CPL        A
       CODE:026f f2 73           JB0x7      LAB_CODE_0273
       CODE:0271 23 80           MOV        A,#0x80
                             LAB_CODE_0273                                   XREF[1]:     CODE:026f(j)  
       CODE:0273 37              CPL        A
       CODE:0274 47              SWAP       A
       CODE:0275 53 07           ANL        A,#0x7
       CODE:0277 af              MOV        R7,A
       CODE:0278 c6 7f           JZ         LAB_CODE_027f
                             LAB_CODE_027a                                   XREF[1]:     CODE:027d(j)  
       CODE:027a fe              MOV        A,R6
       CODE:027b b4 cf           CALL       FUN_CODE_05cf                                    undefined FUN_CODE_05cf()
       CODE:027d ef 7a           DJNZ       R7,LAB_CODE_027a
                             LAB_CODE_027f                                   XREF[1]:     CODE:0278(j)  
       CODE:027f b4 ef           CALL       FUN_CODE_05ef                                    undefined FUN_CODE_05ef()
       CODE:0281 fb              MOV        A,R3
       CODE:0282 ae              MOV        R6,A
       CODE:0283 b8 bd           MOV        R0,#0xbd
       CODE:0285 f4 08           CALL       ReadECTMap                                       undefined ReadECTMap(void)
       CODE:0287 b4 d5           CALL       FUN_CODE_05d5                                    undefined FUN_CODE_05d5()
       CODE:0289 6e              ADD        A,R6
       CODE:028a ab              MOV        R3,A
       CODE:028b b8 2d           MOV        R0,#0x2d
       CODE:028d f0              MOV        A,@R0=>DAT_INTMEM_2d                             = ??
       CODE:028e 37              CPL        A
       CODE:028f 6b              ADD        A,R3
       CODE:0290 e6 97           JNC        LAB_CODE_0297
       CODE:0292 fb              MOV        A,R3
       CODE:0293 a0              MOV        @R0=>DAT_INTMEM_2d,A                             = ??
       CODE:0294 18              INC        R0
       CODE:0295 b0 1e           MOV        @R0=>DAT_INTMEM_2e,#0x1e                         = ??
                             LAB_CODE_0297                                   XREF[6]:     CODE:0221(j), CODE:022c(j), 
                                                                                          CODE:0237(j), CODE:023f(j), 
                                                                                          CODE:0261(j), CODE:0290(j)  
       CODE:0297 89 40           ORL        P1,#0x40
       CODE:0299 be 04           MOV        R6,#0x4
       CODE:029b bf 1a           MOV        R7,#0x1a
       CODE:029d 0a              IN         A,P2=>P2                                         = ??
       CODE:029e 92 ac           JB0x4      LAB_CODE_02ac
       CODE:02a0 be 03           MOV        R6,#0x3
       CODE:02a2 bf 9a           MOV        R7,#0x9a
       CODE:02a4 f2 b2           JB0x7      LAB_CODE_02b2
       CODE:02a6 be 03           MOV        R6,#0x3
       CODE:02a8 bf 9a           MOV        R7,#0x9a
       CODE:02aa 44 b2           JMP        LAB_CODE_02b2
                             LAB_CODE_02ac                                   XREF[1]:     CODE:029e(j)  
       CODE:02ac f2 b2           JB0x7      LAB_CODE_02b2
       CODE:02ae be 04           MOV        R6,#0x4
       CODE:02b0 bf 1a           MOV        R7,#0x1a
                             LAB_CODE_02b2                                   XREF[3]:     CODE:02a4(j), CODE:02aa(j), 
                                                                                          CODE:02ac(j)  
       CODE:02b2 b9 22           MOV        R1,#0x22
       CODE:02b4 f1              MOV        A,@R1=>AC?                                       = ??
       CODE:02b5 53 02           ANL        A,#0x2
       CODE:02b7 aa              MOV        R2,A
       CODE:02b8 c9              DEC        R1
       CODE:02b9 21              XCH        A,@R1=>DAT_INTMEM_21                             = ??
       CODE:02ba 2a              XCH        A,R2
       CODE:02bb 96 d1           JNZ        LAB_CODE_02d1
       CODE:02bd da              XRL        A,R2
       CODE:02be c6 d1           JZ         LAB_CODE_02d1
       CODE:02c0 b8 51           MOV        R0,#0x51
       CODE:02c2 f0              MOV        A,@R0=>DAT_INTMEM_51                             = ??
       CODE:02c3 03 60           ADD        A,#0x60
       CODE:02c5 f6 d1           JC         LAB_CODE_02d1
       CODE:02c7 03 50           ADD        A,#0x50
       CODE:02c9 e6 d1           JNC        LAB_CODE_02d1
       CODE:02cb b8 61           MOV        R0,#0x61
       CODE:02cd b0 02           MOV        @R0=>DAT_INTMEM_61,#0x2                          = ??
       CODE:02cf 44 dc           JMP        LAB_CODE_02dc
                             LAB_CODE_02d1                                   XREF[4]:     CODE:02bb(j), CODE:02be(j), 
                                                                                          CODE:02c5(j), CODE:02c9(j)  
       CODE:02d1 b8 2d           MOV        R0,#0x2d
       CODE:02d3 b9 36           MOV        R1,#0x36
       CODE:02d5 f1              MOV        A,@R1=>ECT                                       = ??
       CODE:02d6 03 ff           ADD        A,#0xff
       CODE:02d8 e6 dc           JNC        LAB_CODE_02dc
       CODE:02da d4 fd           CALL       FUN_CODE_06fd                                    undefined FUN_CODE_06fd()
                             LAB_CODE_02dc                                   XREF[2]:     CODE:02cf(j), CODE:02d8(j)  
       CODE:02dc b8 2f           MOV        R0,#0x2f
       CODE:02de d4 fd           CALL       FUN_CODE_06fd                                    undefined FUN_CODE_06fd()
       CODE:02e0 b8 32           MOV        R0,#0x32
       CODE:02e2 f0              MOV        A,@R0=>DAT_INTMEM_32                             = ??
       CODE:02e3 d4 78           CALL       FUN_CODE_0678                                    undefined FUN_CODE_0678()
       CODE:02e5 99 bf           ANL        P1,#0xbf
       CODE:02e7 b8 4a           MOV        R0,#0x4a
       CODE:02e9 fb              MOV        A,R3
       CODE:02ea a0              MOV        @R0=>DAT_INTMEM_4a,A                             = ??
       CODE:02eb 18              INC        R0
       CODE:02ec fa              MOV        A,R2
       CODE:02ed a0              MOV        @R0=>DAT_INTMEM_4b,A                             = ??
       CODE:02ee b8 32           MOV        R0,#0x32
       CODE:02f0 f0              MOV        A,@R0=>DAT_INTMEM_32                             = ??
       CODE:02f1 03 10           ADD        A,#0x10
       CODE:02f3 e6 f6           JNC        LAB_CODE_02f6
       CODE:02f5 f0              MOV        A,@R0=>DAT_INTMEM_32                             = ??
                             LAB_CODE_02f6                                   XREF[1]:     CODE:02f3(j)  
       CODE:02f6 d4 78           CALL       FUN_CODE_0678                                    undefined FUN_CODE_0678()
       CODE:02f8 b8 4c           MOV        R0,#0x4c
       CODE:02fa fb              MOV        A,R3
       CODE:02fb a0              MOV        @R0=>DAT_INTMEM_4c,A                             = ??
       CODE:02fc 18              INC        R0
       CODE:02fd fa              MOV        A,R2
       CODE:02fe 84 00           JMP        LAB_CODE_0400
       CODE:0300 d0              ??         D0h
       CODE:0301 da              ??         DAh
       CODE:0302 d4              ??         D4h
       CODE:0303 cc              ??         CCh
       CODE:0304 be              ??         BEh
       CODE:0305 a7              ??         A7h
       CODE:0306 9d              ??         9Dh
       CODE:0307 94              ??         94h
       CODE:0308 8a              ??         8Ah
       CODE:0309 77              ??         77h    w
       CODE:030a 70              ??         70h    p
       CODE:030b 7b              ??         7Bh    {
       CODE:030c 63              ??         63h    c
       CODE:030d 82              ??         82h
       CODE:030e b0              ??         B0h
       CODE:030f b4              ??         B4h
       CODE:0310 a3              ??         A3h
       CODE:0311 83              ??         83h
       CODE:0312 01              ??         01h
       CODE:0313 02              ??         02h
       CODE:0314 04              ??         04h
       CODE:0315 06              ??         06h
       CODE:0316 07              ??         07h
       CODE:0317 08              ??         08h
       CODE:0318 0a              ??         0Ah
       CODE:0319 10              ??         10h
       CODE:031a 21              ??         21h    !
       CODE:031b 28              ??         28h    (
       CODE:031c 48              ??         48h    H
       CODE:031d 4c              ??         4Ch    L
       CODE:031e b0              ??         B0h
       CODE:031f b4              ??         B4h
       CODE:0320 52              ??         52h    R
       CODE:0321 52              ??         52h    R
       CODE:0322 00              ??         00h
       CODE:0323 02              ??         02h
       CODE:0324 04              ??         04h
       CODE:0325 05              ??         05h
       CODE:0326 05              ??         05h
       CODE:0327 06              ??         06h
       CODE:0328 08              ??         08h
       CODE:0329 20              ??         20h     
       CODE:032a 24              ??         24h    $
       CODE:032b 2a              ??         2Ah    *
       CODE:032c 4b              ??         4Bh    K
       CODE:032d 6e              ??         6Eh    n
       CODE:032e ad              ??         ADh
       CODE:032f b1              ??         B1h
       CODE:0330 52              ??         52h    R
       CODE:0331 52              ??         52h    R
       CODE:0332 08              ??         08h
       CODE:0333 0a              ??         0Ah
       CODE:0334 0e              ??         0Eh
       CODE:0335 12              ??         12h
       CODE:0336 14              ??         14h
       CODE:0337 18              ??         18h
       CODE:0338 29              ??         29h    )
       CODE:0339 2e              ??         2Eh    .
       CODE:033a 38              ??         38h    8
       CODE:033b 47              ??         47h    G
       CODE:033c 64              ??         64h    d
       CODE:033d 8f              ??         8Fh
       CODE:033e d2              ??         D2h
       CODE:033f db              ??         DBh
       CODE:0340 07              ??         07h
       CODE:0341 0b              ??         0Bh
       CODE:0342 10              ??         10h
       CODE:0343 12              ??         12h
       CODE:0344 17              ??         17h
       CODE:0345 26              ??         26h    &
       CODE:0346 2a              ??         2Ah    *
       CODE:0347 2e              ??         2Eh    .
       CODE:0348 34              ??         34h    4
       CODE:0349 41              ??         41h    A
       CODE:034a 4f              ??         4Fh    O
       CODE:034b 63              ??         63h    c
       CODE:034c 80              ??         80h
       CODE:034d 8a              ??         8Ah
       CODE:034e c9              ??         C9h
       CODE:034f ce              ??         CEh
       CODE:0350 12              ??         12h
       CODE:0351 15              ??         15h
       CODE:0352 1a              ??         1Ah
       CODE:0353 29              ??         29h    )
       CODE:0354 2c              ??         2Ch    ,
       CODE:0355 2f              ??         2Fh    /
       CODE:0356 36              ??         36h    6
       CODE:0357 3c              ??         3Ch    <
       CODE:0358 49              ??         49h    I
       CODE:0359 54              ??         54h    T
       CODE:035a 69              ??         69h    i
       CODE:035b 7b              ??         7Bh    {
       CODE:035c 96              ??         96h
       CODE:035d bc              ??         BCh
       CODE:035e cb              ??         CBh
       CODE:035f d0              ??         D0h
       CODE:0360 27              ??         27h    '
       CODE:0361 30              ??         30h    0
       CODE:0362 32              ??         32h    2
       CODE:0363 35              ??         35h    5
       CODE:0364 39              ??         39h    9
       CODE:0365 42              ??         42h    B
       CODE:0366 49              ??         49h    I
       CODE:0367 50              ??         50h    P
       CODE:0368 5f              ??         5Fh    _
       CODE:0369 6c              ??         6Ch    l
       CODE:036a 81              ??         81h
       CODE:036b 93              ??         93h
       CODE:036c b0              ??         B0h
       CODE:036d da              ??         DAh
       CODE:036e d5              ??         D5h
       CODE:036f d9              ??         D9h
       CODE:0370 36              ??         36h    6
       CODE:0371 3e              ??         3Eh    >
       CODE:0372 42              ??         42h    B
       CODE:0373 47              ??         47h    G
       CODE:0374 4d              ??         4Dh    M
       CODE:0375 55              ??         55h    U
       CODE:0376 60              ??         60h    `
       CODE:0377 68              ??         68h    h
       CODE:0378 76              ??         76h    v
       CODE:0379 84              ??         84h
       CODE:037a 9c              ??         9Ch
       CODE:037b ae              ??         AEh
       CODE:037c c3              ??         C3h
       CODE:037d c1              ??         C1h
       CODE:037e d8              ??         D8h
       CODE:037f dc              ??         DCh
       CODE:0380 42              ??         42h    B
       CODE:0381 4f              ??         4Fh    O
       CODE:0382 57              ??         57h    W
       CODE:0383 59              ??         59h    Y
       CODE:0384 61              ??         61h    a
       CODE:0385 6c              ??         6Ch    l
       CODE:0386 76              ??         76h    v
       CODE:0387 80              ??         80h
       CODE:0388 90              ??         90h
       CODE:0389 a0              ??         A0h
       CODE:038a b7              ??         B7h
       CODE:038b c6              ??         C6h
       CODE:038c c3              ??         C3h
       CODE:038d c5              ??         C5h
       CODE:038e dc              ??         DCh
       CODE:038f e0              ??         E0h
       CODE:0390 50              ??         50h    P
       CODE:0391 63              ??         63h    c
       CODE:0392 6a              ??         6Ah    j
       CODE:0393 71              ??         71h    q
       CODE:0394 77              ??         77h    w
       CODE:0395 84              ??         84h
       CODE:0396 8f              ??         8Fh
       CODE:0397 9a              ??         9Ah
       CODE:0398 ab              ??         ABh
       CODE:0399 bb              ??         BBh
       CODE:039a cc              ??         CCh
       CODE:039b c6              ??         C6h
       CODE:039c c3              ??         C3h
       CODE:039d c1              ??         C1h
       CODE:039e e0              ??         E0h
       CODE:039f e3              ??         E3h
       CODE:03a0 6b              ??         6Bh    k
       CODE:03a1 7d              ??         7Dh    }
       CODE:03a2 83              ??         83h
       CODE:03a3 8a              ??         8Ah
       CODE:03a4 92              ??         92h
       CODE:03a5 9f              ??         9Fh
       CODE:03a6 ab              ??         ABh
       CODE:03a7 b7              ??         B7h
       CODE:03a8 c8              ??         C8h
       CODE:03a9 d1              ??         D1h
       CODE:03aa d2              ??         D2h
       CODE:03ab c6              ??         C6h
       CODE:03ac c3              ??         C3h
       CODE:03ad c1              ??         C1h
       CODE:03ae e4              ??         E4h
       CODE:03af e7              ??         E7h
       CODE:03b0 88              ??         88h
       CODE:03b1 9a              ??         9Ah
       CODE:03b2 9f              ??         9Fh
       CODE:03b3 a9              ??         A9h
       CODE:03b4 b0              ??         B0h
       CODE:03b5 bd              ??         BDh
       CODE:03b6 c8              ??         C8h
       CODE:03b7 cf              ??         CFh
       CODE:03b8 d2              ??         D2h
       CODE:03b9 d8              ??         D8h
       CODE:03ba c9              ??         C9h
       CODE:03bb c6              ??         C6h
       CODE:03bc c3              ??         C3h
       CODE:03bd c1              ??         C1h
       CODE:03be e8              ??         E8h
       CODE:03bf e9              ??         E9h
       CODE:03c0 a3              ??         A3h
       CODE:03c1 b4              ??         B4h
       CODE:03c2 bb              ??         BBh
       CODE:03c3 c6              ??         C6h
       CODE:03c4 cb              ??         CBh
       CODE:03c5 d8              ??         D8h
       CODE:03c6 d6              ??         D6h
       CODE:03c7 d5              ??         D5h
       CODE:03c8 d8              ??         D8h
       CODE:03c9 cf              ??         CFh
       CODE:03ca c9              ??         C9h
       CODE:03cb c6              ??         C6h
       CODE:03cc c3              ??         C3h
       CODE:03cd c1              ??         C1h
       CODE:03ce eb              ??         EBh
       CODE:03cf ec              ??         ECh
       CODE:03d0 c2              ??         C2h
       CODE:03d1 ca              ??         CAh
       CODE:03d2 d4              ??         D4h
       CODE:03d3 db              ??         DBh
       CODE:03d4 e0              ??         E0h
       CODE:03d5 e5              ??         E5h
       CODE:03d6 d0              ??         D0h
       CODE:03d7 d2              ??         D2h
       CODE:03d8 d1              ??         D1h
       CODE:03d9 cf              ??         CFh
       CODE:03da c9              ??         C9h
       CODE:03db c6              ??         C6h
       CODE:03dc c3              ??         C3h
       CODE:03dd c1              ??         C1h
       CODE:03de f3              ??         F3h
       CODE:03df f4              ??         F4h
       CODE:03e0 c4              ??         C4h
       CODE:03e1 d2              ??         D2h
       CODE:03e2 e0              ??         E0h
       CODE:03e3 f0              ??         F0h
       CODE:03e4 da              ??         DAh
       CODE:03e5 d8              ??         D8h
       CODE:03e6 d5              ??         D5h
       CODE:03e7 d2              ??         D2h
       CODE:03e8 d1              ??         D1h
       CODE:03e9 cf              ??         CFh
       CODE:03ea c9              ??         C9h
       CODE:03eb c6              ??         C6h
       CODE:03ec c3              ??         C3h
       CODE:03ed c1              ??         C1h
       CODE:03ee f4              ??         F4h
       CODE:03ef f5              ??         F5h
       CODE:03f0 cc              ??         CCh
       CODE:03f1 d1              ??         D1h
       CODE:03f2 d9              ??         D9h
       CODE:03f3 da              ??         DAh
       CODE:03f4 da              ??         DAh
       CODE:03f5 d8              ??         D8h
       CODE:03f6 d5              ??         D5h
       CODE:03f7 d2              ??         D2h
       CODE:03f8 d1              ??         D1h
       CODE:03f9 cf              ??         CFh
       CODE:03fa c9              ??         C9h
       CODE:03fb c6              ??         C6h
       CODE:03fc c3              ??         C3h
       CODE:03fd c1              ??         C1h
       CODE:03fe f5              ??         F5h
       CODE:03ff f6              ??         F6h
                             LAB_CODE_0400                                   XREF[1]:     CODE:02fe(j)  
       CODE:0400 a0              MOV        @R0=>DAT_INTMEM_4d,A                             = ??
       CODE:0401 d4 a6           CALL       FUN_CODE_06a6                                    undefined FUN_CODE_06a6()
       CODE:0403 89 40           ORL        P1,#0x40
       CODE:0405 b8 48           MOV        R0,#0x48
       CODE:0407 b9 29           MOV        R1,#0x29
       CODE:0409 f0              MOV        A,@R0=>DAT_INTMEM_48                             = ??
       CODE:040a c6 22           JZ         LAB_CODE_0422
       CODE:040c d4 fd           CALL       FUN_CODE_06fd                                    undefined FUN_CODE_06fd()
       CODE:040e b8 22           MOV        R0,#0x22
       CODE:0410 f0              MOV        A,@R0=>AC?                                       = ??
       CODE:0411 53 f7           ANL        A,#0xf7
       CODE:0413 a0              MOV        @R0=>AC?,A                                       = ??
       CODE:0414 b8 49           MOV        R0,#0x49
       CODE:0416 f0              MOV        A,@R0=>DAT_INTMEM_49                             = ??
       CODE:0417 96 20           JNZ        LAB_CODE_0420
       CODE:0419 c8              DEC        R0
       CODE:041a f1              MOV        A,@R1=>DAT_INTMEM_29                             = ??
       CODE:041b 53 03           ANL        A,#0x3
       CODE:041d 96 22           JNZ        LAB_CODE_0422
       CODE:041f f0              MOV        A,@R0=>DAT_INTMEM_48                             = ??
                             LAB_CODE_0420                                   XREF[1]:     CODE:0417(j)  
       CODE:0420 07              DEC        A
       CODE:0421 a0              MOV        @R0=>DAT_INTMEM_48,A                             = ??
                             LAB_CODE_0422                                   XREF[2]:     CODE:040a(j), CODE:041d(j)  
       CODE:0422 0a              IN         A,P2=>P2                                         = ??
       CODE:0423 92 40           JB0x4      LAB_CODE_0440
       CODE:0425 b8 36           MOV        R0,#0x36
       CODE:0427 f0              MOV        A,@R0=>ECT                                       = ??
       CODE:0428 03 10           ADD        A,#0x10
       CODE:042a e6 34           JNC        LAB_CODE_0434
       CODE:042c b8 40           MOV        R0,#0x40
       CODE:042e b0 00           MOV        @R0=>DAT_INTMEM_40,#0x0                          = ??
       CODE:0430 b8 43           MOV        R0,#0x43
       CODE:0432 b0 80           MOV        @R0=>DAT_INTMEM_43,#0x80                         = ??
                             LAB_CODE_0434                                   XREF[1]:     CODE:042a(j)  
       CODE:0434 f5              SEL        MB1
       CODE:0435 14 00           CALL       FUN_CODE_0800                                    undefined FUN_CODE_0800()
       CODE:0437 e5              SEL        MB0
       CODE:0438 99 bf           ANL        P1,#0xbf
       CODE:043a d4 0a           CALL       FUN_CODE_060a                                    undefined FUN_CODE_060a()
       CODE:043c 89 40           ORL        P1,#0x40
       CODE:043e 84 42           JMP        LAB_CODE_0442
                             LAB_CODE_0440                                   XREF[1]:     CODE:0423(j)  
       CODE:0440 b4 a7           CALL       FUN_CODE_05a7                                    undefined FUN_CODE_05a7()
                             LAB_CODE_0442                                   XREF[1]:     CODE:043e(j)  
       CODE:0442 b9 33           MOV        R1,#0x33
       CODE:0444 b8 22           MOV        R0,#0x22
       CODE:0446 f0              MOV        A,@R0=>AC?                                       = ??
       CODE:0447 37              CPL        A
       CODE:0448 32 b4           JB0x1      LAB_CODE_04b4
       CODE:044a 72 b8           JB0x3      LAB_CODE_04b8
       CODE:044c b8 36           MOV        R0,#0x36
       CODE:044e f0              MOV        A,@R0=>ECT                                       = ??
       CODE:044f b8 47           MOV        R0,#0x47
       CODE:0451 60              ADD        A,@R0=>DAT_INTMEM_47                             = ??
       CODE:0452 f6 b8           JC         LAB_CODE_04b8
       CODE:0454 b8 52           MOV        R0,#0x52
       CODE:0456 f0              MOV        A,@R0=>DAT_INTMEM_52                             = ??
       CODE:0457 ba 44           MOV        R2,#0x44
       CODE:0459 85              CLR        F0
       CODE:045a 95              CPL        F0
       CODE:045b f2 64           JB0x7      LAB_CODE_0464
       CODE:045d 03 f9           ADD        A,#0xf9
       CODE:045f e6 64           JNC        LAB_CODE_0464
       CODE:0461 ba 57           MOV        R2,#0x57
       CODE:0463 85              CLR        F0
                             LAB_CODE_0464                                   XREF[2]:     CODE:045b(j), CODE:045f(j)  
       CODE:0464 b8 24           MOV        R0,#0x24
       CODE:0466 f0              MOV        A,@R0=>DAT_INTMEM_24                             = ??
       CODE:0467 6a              ADD        A,R2
       CODE:0468 f6 a0           JC         LAB_CODE_04a0
       CODE:046a b8 23           MOV        R0,#0x23
       CODE:046c f0              MOV        A,@R0=>DAT_INTMEM_23                             = ??
       CODE:046d 03 70           ADD        A,#0x70
       CODE:046f f1              MOV        A,@R1=>DAT_INTMEM_33                             = ??
       CODE:0470 f6 75           JC         LAB_CODE_0475
       CODE:0472 43 80           ORL        A,#0x80
       CODE:0474 a1              MOV        @R1=>DAT_INTMEM_33,A                             = ??
                             LAB_CODE_0475                                   XREF[1]:     CODE:0470(j)  
       CODE:0475 37              CPL        A
       CODE:0476 f2 b8           JB0x7      LAB_CODE_04b8
       CODE:0478 f1              MOV        A,@R1=>DAT_INTMEM_33                             = ??
       CODE:0479 72 b8           JB0x3      LAB_CODE_04b8
       CODE:047b b8 5e           MOV        R0,#0x5e
       CODE:047d f0              MOV        A,@R0=>DAT_INTMEM_5e                             = ??
       CODE:047e c6 8f           JZ         LAB_CODE_048f
       CODE:0480 07              DEC        A
       CODE:0481 a0              MOV        @R0=>DAT_INTMEM_5e,A                             = ??
       CODE:0482 b8 5f           MOV        R0,#0x5f
       CODE:0484 b0 80           MOV        @R0=>DAT_INTMEM_5f,#0x80                         = ??
       CODE:0486 18              INC        R0
       CODE:0487 b0 00           MOV        @R0=>DAT_INTMEM_60,#0x0                          = ??
       CODE:0489 f1              MOV        A,@R1=>DAT_INTMEM_33                             = ??
       CODE:048a 43 08           ORL        A,#0x8
       CODE:048c a1              MOV        @R1=>DAT_INTMEM_33,A                             = ??
       CODE:048d 84 b8           JMP        LAB_CODE_04b8
                             LAB_CODE_048f                                   XREF[1]:     CODE:047e(j)  
       CODE:048f b8 40           MOV        R0,#0x40
       CODE:0491 27              CLR        A
       CODE:0492 a0              MOV        @R0=>DAT_INTMEM_40,A                             = ??
       CODE:0493 ae              MOV        R6,A
       CODE:0494 bf 01           MOV        R7,#0x1
       CODE:0496 b8 3d           MOV        R0,#0x3d
       CODE:0498 b0 18           MOV        @R0=>DAT_INTMEM_3d,#0x18                         = ??
       CODE:049a f1              MOV        A,@R1=>DAT_INTMEM_33                             = ??
       CODE:049b 43 40           ORL        A,#0x40
       CODE:049d a1              MOV        @R1=>DAT_INTMEM_33,A                             = ??
       CODE:049e 84 e7           JMP        LAB_CODE_04e7
                             LAB_CODE_04a0                                   XREF[1]:     CODE:0468(j)  
       CODE:04a0 f1              MOV        A,@R1=>DAT_INTMEM_33                             = ??
       CODE:04a1 37              CPL        A
       CODE:04a2 f2 b8           JB0x7      LAB_CODE_04b8
       CODE:04a4 b6 aa           JF0        LAB_CODE_04aa
       CODE:04a6 b8 61           MOV        R0,#0x61
       CODE:04a8 b0 02           MOV        @R0=>DAT_INTMEM_61,#0x2                          = ??
                             LAB_CODE_04aa                                   XREF[1]:     CODE:04a4(j)  
       CODE:04aa b8 29           MOV        R0,#0x29
       CODE:04ac b0 80           MOV        @R0=>DAT_INTMEM_29,#0x80                         = ??
       CODE:04ae b8 22           MOV        R0,#0x22
       CODE:04b0 f0              MOV        A,@R0=>AC?                                       = ??
       CODE:04b1 53 f7           ANL        A,#0xf7
       CODE:04b3 a0              MOV        @R0=>AC?,A                                       = ??
                             LAB_CODE_04b4                                   XREF[1]:     CODE:0448(j)  
       CODE:04b4 f1              MOV        A,@R1=>DAT_INTMEM_33                             = ??
       CODE:04b5 53 37           ANL        A,#0x37
       CODE:04b7 a1              MOV        @R1=>DAT_INTMEM_33,A                             = ??
                             LAB_CODE_04b8                                   XREF[6]:     CODE:044a(j), CODE:0452(j), 
                                                                                          CODE:0476(j), CODE:0479(j), 
                                                                                          CODE:048d(j), CODE:04a2(j)  
       CODE:04b8 99 bf           ANL        P1,#0xbf
                             LAB_CODE_04ba                                   XREF[1]:     CODE:019b(j)  
       CODE:04ba ff              MOV        A,R7
       CODE:04bb b8 8b           MOV        R0,#0x8b
       CODE:04bd f4 0b           CALL       LookupA                                          undefined LookupA()
       CODE:04bf b9 00           MOV        R1,#0x0
                             LAB_CODE_04c1                                   XREF[1]:     CODE:04ca(j)  
       CODE:04c1 fb              MOV        A,R3
       CODE:04c2 f7              RLC        A
       CODE:04c3 ab              MOV        R3,A
       CODE:04c4 fa              MOV        A,R2
       CODE:04c5 f7              RLC        A
       CODE:04c6 aa              MOV        R2,A
       CODE:04c7 f9              MOV        A,R1
       CODE:04c8 f7              RLC        A
       CODE:04c9 a9              MOV        R1,A
       CODE:04ca ee c1           DJNZ       R6,LAB_CODE_04c1
       CODE:04cc ae              MOV        R6,A
       CODE:04cd fa              MOV        A,R2
       CODE:04ce af              MOV        R7,A
       CODE:04cf b8 22           MOV        R0,#0x22
       CODE:04d1 f0              MOV        A,@R0=>AC?                                       = ??
       CODE:04d2 37              CPL        A
       CODE:04d3 12 e7           JB0x0      LAB_CODE_04e7
       CODE:04d5 b9 35           MOV        R1,#0x35
       CODE:04d7 b8 7a           MOV        R0,#0x7a
       CODE:04d9 f4 0a           CALL       LookupR1Mem                                      Doing battery voltage lookup
       CODE:04db b4 d5           CALL       FUN_CODE_05d5                                    undefined FUN_CODE_05d5()
       CODE:04dd 03 63           ADD        A,#0x63
       CODE:04df e6 e2           JNC        LAB_CODE_04e2
       CODE:04e1 1e              INC        R6
                             LAB_CODE_04e2                                   XREF[1]:     CODE:04df(j)  
       CODE:04e2 6f              ADD        A,R7
       CODE:04e3 af              MOV        R7,A
       CODE:04e4 e6 e7           JNC        LAB_CODE_04e7
       CODE:04e6 1e              INC        R6
                             LAB_CODE_04e7                                   XREF[3]:     CODE:049e(j), CODE:04d3(j), 
                                                                                          CODE:04e4(j)  
       CODE:04e7 b8 2c           MOV        R0,#0x2c
       CODE:04e9 ff              MOV        A,R7
       CODE:04ea 53 0f           ANL        A,#0xf
       CODE:04ec 15              DIS        I
       CODE:04ed a0              MOV        @R0=>DAT_INTMEM_2c,A                             = ??
       CODE:04ee ff              MOV        A,R7
       CODE:04ef 53 f0           ANL        A,#0xf0
       CODE:04f1 af              MOV        R7,A
       CODE:04f2 fe              MOV        A,R6
       CODE:04f3 53 0f           ANL        A,#0xf
       CODE:04f5 4f              ORL        A,R7
       CODE:04f6 47              SWAP       A
       CODE:04f7 c8              DEC        R0
       CODE:04f8 a0              MOV        @R0=>DAT_INTMEM_2b,A                             = ??
       CODE:04f9 fe              MOV        A,R6
       CODE:04fa 53 f0           ANL        A,#0xf0
       CODE:04fc 47              SWAP       A
       CODE:04fd c8              DEC        R0
       CODE:04fe a0              MOV        @R0=>DAT_INTMEM_2a,A                             = ??
       CODE:04ff 05              EN         I
       CODE:0500 b4 70           CALL       FUN_CODE_0570                                    undefined FUN_CODE_0570()
       CODE:0502 a5              CLR        F1
                             LAB_CODE_0503                                   XREF[1]:     CODE:0519(j)  
       CODE:0503 89 40           ORL        P1,#0x40
       CODE:0505 14 30           CALL       InterruptExit                                    undefined InterruptExit()
       CODE:0507 b8 38           MOV        R0,#0x38
       CODE:0509 9a f8           ANL        P2,#0xf8
       CODE:050b 8a 05           ORL        P2,#0x5
       CODE:050d b4 b8           CALL       ReadADC                                          undefined ReadADC(void)
       CODE:050f 03 80           ADD        A,#0x80
       CODE:0511 e6 15           JNC        LAB_CODE_0515
       CODE:0513 99 ef           ANL        P1,#0xef
                             LAB_CODE_0515                                   XREF[1]:     CODE:0511(j)  
       CODE:0515 99 bf           ANL        P1,#0xbf
       CODE:0517 76 1b           JF1        LAB_CODE_051b
       CODE:0519 a4 03           JMP        LAB_CODE_0503
                             LAB_CODE_051b                                   XREF[1]:     CODE:0517(j)  
       CODE:051b b8 3d           MOV        R0,#0x3d
       CODE:051d f0              MOV        A,@R0=>DAT_INTMEM_3d                             = ??
       CODE:051e c6 22           JZ         LAB_CODE_0522
       CODE:0520 07              DEC        A
       CODE:0521 a0              MOV        @R0=>DAT_INTMEM_3d,A                             = ??
                             LAB_CODE_0522                                   XREF[1]:     CODE:051e(j)  
       CODE:0522 b8 29           MOV        R0,#0x29
       CODE:0524 b9 58           MOV        R1,#0x58
       CODE:0526 10              INC        @R0=>DAT_INTMEM_29                               = ??
       CODE:0527 f0              MOV        A,@R0=>DAT_INTMEM_29                             = ??
       CODE:0528 aa              MOV        R2,A
       CODE:0529 53 07           ANL        A,#0x7
       CODE:052b b8 2f           MOV        R0,#0x2f
       CODE:052d 96 36           JNZ        LAB_CODE_0536
       CODE:052f f0              MOV        A,@R0=>DAT_INTMEM_2f                             = ??
       CODE:0530 c6 36           JZ         LAB_CODE_0536
       CODE:0532 07              DEC        A
       CODE:0533 a0              MOV        @R0=>DAT_INTMEM_2f,A                             = ??
       CODE:0534 b1 30           MOV        @R1=>DAT_INTMEM_58,#0x30                         = ??
                             LAB_CODE_0536                                   XREF[2]:     CODE:052d(j), CODE:0530(j)  
       CODE:0536 b8 22           MOV        R0,#0x22
       CODE:0538 fa              MOV        A,R2
       CODE:0539 bb 81           MOV        R3,#0x81
       CODE:053b 37              CPL        A
       CODE:053c b2 45           JB0x5      LAB_CODE_0545
       CODE:053e 96 42           JNZ        LAB_CODE_0542
       CODE:0540 bb 89           MOV        R3,#0x89
                             LAB_CODE_0542                                   XREF[1]:     CODE:053e(j)  
       CODE:0542 f0              MOV        A,@R0=>AC?                                       = ??
       CODE:0543 4b              ORL        A,R3
       CODE:0544 a0              MOV        @R0=>AC?,A                                       = ??
                             LAB_CODE_0545                                   XREF[1]:     CODE:053c(j)  
       CODE:0545 b8 31           MOV        R0,#0x31
       CODE:0547 f0              MOV        A,@R0=>DAT_INTMEM_31                             = ??
       CODE:0548 c8              DEC        R0
       CODE:0549 60              ADD        A,@R0=>DAT_INTMEM_30                             = ??
       CODE:054a f6 4d           JC         LAB_CODE_054d
       CODE:054c 27              CLR        A
                             LAB_CODE_054d                                   XREF[1]:     CODE:054a(j)  
       CODE:054d a0              MOV        @R0=>DAT_INTMEM_30,A                             = ??
       CODE:054e b8 2e           MOV        R0,#0x2e
       CODE:0550 f0              MOV        A,@R0=>DAT_INTMEM_2e                             = ??
       CODE:0551 96 57           JNZ        LAB_CODE_0557
       CODE:0553 c8              DEC        R0
       CODE:0554 f0              MOV        A,@R0=>DAT_INTMEM_2d                             = ??
       CODE:0555 c6 59           JZ         LAB_CODE_0559
                             LAB_CODE_0557                                   XREF[1]:     CODE:0551(j)  
       CODE:0557 07              DEC        A
       CODE:0558 a0              MOV        @R0=>DAT_INTMEM_2d,A                             = ??
                             LAB_CODE_0559                                   XREF[1]:     CODE:0555(j)  
       CODE:0559 f1              MOV        A,@R1=>DAT_INTMEM_58                             = ??
       CODE:055a c6 60           JZ         LAB_CODE_0560
       CODE:055c 07              DEC        A
       CODE:055d a1              MOV        @R1=>DAT_INTMEM_58,A                             = ??
       CODE:055e a4 67           JMP        LAB_CODE_0567
                             LAB_CODE_0560                                   XREF[1]:     CODE:055a(j)  
       CODE:0560 b1 20           MOV        @R1=>DAT_INTMEM_58,#0x20                         = ??
       CODE:0562 c9              DEC        R1
       CODE:0563 f1              MOV        A,@R1=>DAT_INTMEM_57                             = ??
       CODE:0564 c6 67           JZ         LAB_CODE_0567
       CODE:0566 11              INC        @R1=>DAT_INTMEM_57                               = ??
                             LAB_CODE_0567                                   XREF[2]:     CODE:055e(j), CODE:0564(j)  
       CODE:0567 b8 61           MOV        R0,#0x61
       CODE:0569 f0              MOV        A,@R0=>DAT_INTMEM_61                             = ??
       CODE:056a c6 6e           JZ         LAB_CODE_056e
       CODE:056c 07              DEC        A
       CODE:056d a0              MOV        @R0=>DAT_INTMEM_61,A                             = ??
                             LAB_CODE_056e                                   XREF[1]:     CODE:056a(j)  
       CODE:056e 24 75           JMP        LAB_CODE_0175
                             **************************************************************
                             *                          FUNCTION                          *
                             **************************************************************
                             undefined FUN_CODE_0570()
                               assume membank = 0x0
             undefined         A:1            <RETURN>
                             FUN_CODE_0570                                   XREF[1]:     RESET:0500(c)  
       CODE:0570 b9 42           MOV        R1,#0x42
       CODE:0572 b8 40           MOV        R0,#0x40
       CODE:0574 f0              MOV        A,@R0=>DAT_INTMEM_40                             = ??
       CODE:0575 03 80           ADD        A,#0x80
       CODE:0577 a1              MOV        @R1=>DAT_INTMEM_42,A                             = ??
       CODE:0578 0f              MOVD       A,P7=>P7                                         = ??
       CODE:0579 47              SWAP       A
       CODE:057a a8              MOV        R0,A
       CODE:057b 0e              MOVD       A,P6=>P6                                         = ??
       CODE:057c 48              ORL        A,R0
       CODE:057d 37              CPL        A
       CODE:057e a8              MOV        R0,A
       CODE:057f f0              MOV        A,@R0
       CODE:0580 3c              MOVD       P4=>P4,A                                         = ??
       CODE:0581 47              SWAP       A
       CODE:0582 3d              MOVD       P5=>P5,A                                         = ??
       CODE:0583 83              RET
       CODE:0584 00              ??         00h
       CODE:0585 00              ??         00h
       CODE:0586 00              ??         00h
       CODE:0587 00              ??         00h
       CODE:0588 00              ??         00h
       CODE:0589 00              ??         00h
       CODE:058a 00              ??         00h
       CODE:058b 00              ??         00h
       CODE:058c 00              ??         00h
       CODE:058d 00              ??         00h
       CODE:058e 00              ??         00h
       CODE:058f 00              ??         00h
       CODE:0590 00              ??         00h
       CODE:0591 00              ??         00h
       CODE:0592 00              ??         00h
       CODE:0593 00              ??         00h
       CODE:0594 00              ??         00h
       CODE:0595 00              ??         00h
       CODE:0596 00              ??         00h
       CODE:0597 00              ??         00h
       CODE:0598 00              ??         00h
       CODE:0599 00              ??         00h
       CODE:059a 00              ??         00h
       CODE:059b 00              ??         00h
       CODE:059c 00              ??         00h
       CODE:059d 00              ??         00h
       CODE:059e 00              ??         00h
       CODE:059f 00              ??         00h
       CODE:05a0 00              ??         00h
       CODE:05a1 00              ??         00h
       CODE:05a2 00              ??         00h
       CODE:05a3 00              ??         00h
       CODE:05a4 00              ??         00h
       CODE:05a5 00              ??         00h
       CODE:05a6 00              ??         00h
                             **************************************************************
                             *                          FUNCTION                          *
                             **************************************************************
                             undefined FUN_CODE_05a7()
                               assume membank = 0x0
             undefined         A:1            <RETURN>
                             FUN_CODE_05a7                                   XREF[1]:     RESET:0440(c)  
       CODE:05a7 b8 22           MOV        R0,#0x22
       CODE:05a9 f0              MOV        A,@R0=>AC?                                       = ??
       CODE:05aa 52 ad           JB0x2      LAB_CODE_05ad
       CODE:05ac 83              RET
                             LAB_CODE_05ad                                   XREF[1]:     CODE:05aa(j)  
       CODE:05ad 0a              IN         A,P2=>P2                                         = ??
       CODE:05ae bb 2a           MOV        R3,#0x2a
       CODE:05b0 f2 b4           JB0x7      LAB_CODE_05b4
       CODE:05b2 bb 24           MOV        R3,#0x24
                             LAB_CODE_05b4                                   XREF[1]:     CODE:05b0(j)  
       CODE:05b4 ba 00           MOV        R2,#0x0
       CODE:05b6 a4 c7           JMP        FUN_CODE_05c7                                    undefined FUN_CODE_05c7()
                             -- Flow Override: CALL_RETURN (CALL_TERMINATOR)
                             **************************************************************
                             *                          FUNCTION                          *
                             **************************************************************
                             undefined ReadADC(void)
                               assume membank = 0x0
             undefined         A:1            <RETURN>
                             ReadADC                                         XREF[9]:     RESET:0106(c), RESET:010a(c), 
                                                                                          RESET:01a5(c), RESET:01ab(c), 
                                                                                          RESET:01b2(c), RESET:01b7(c), 
                                                                                          RESET:01be(c), RESET:050d(c), 
                                                                                          FUN_CODE_0b44:0bfa(c)  
       CODE:05b8 80              MOVX       A,@R0
       CODE:05b9 90              MOVX       @R0,A
       CODE:05ba a0              MOV        @R0,A
       CODE:05bb bf 23           MOV        R7,#0x23
                             LAB_CODE_05bd                                   XREF[1]:     CODE:05bd(j)  
       CODE:05bd ef bd           DJNZ       R7,LAB_CODE_05bd
       CODE:05bf 83              RET
                             **************************************************************
                             *                          FUNCTION                          *
                             **************************************************************
                             undefined RegCleanup(void)
                               assume membank = 0x0
             undefined         A:1            <RETURN>
                             RegCleanup                                      XREF[4]:     FUN_CODE_0678:067f(c), 
                                                                                          FUN_CODE_06a6:06a6(c), 
                                                                                          LookupA:070c(c), 
                                                                                          FUN_CODE_0d79:0d7c(c)  
       CODE:05c0 27              CLR        A
       CODE:05c1 aa              MOV        R2,A
       CODE:05c2 ab              MOV        R3,A
       CODE:05c3 bc 10           MOV        R4,#0x10
       CODE:05c5 97              CLR        C
       CODE:05c6 83              RET
                             **************************************************************
                             *                          FUNCTION                          *
                             **************************************************************
                             undefined FUN_CODE_05c7()
                               assume membank = 0x0
             undefined         A:1            <RETURN>
                             FUN_CODE_05c7                                   XREF[8]:     RESET:0191(c), RESET:0199(c), 
                                                                                          FUN_CODE_05a7:05b6(c), 
                                                                                          FUN_CODE_06a6:06dd(c), 
                                                                                          FUN_CODE_06a6:06ec(c), 
                                                                                          FUN_CODE_06a6:06f6(c), 
                                                                                          FUN_CODE_060a:0706(c), 
                                                                                          FUN_CODE_0800:08c8(c)  
       CODE:05c7 fb              MOV        A,R3
       CODE:05c8 6f              ADD        A,R7
       CODE:05c9 af              MOV        R7,A
       CODE:05ca fa              MOV        A,R2
       CODE:05cb 7e              ADDC       A,R6
       CODE:05cc ae              MOV        R6,A
       CODE:05cd 83              RET
                             **************************************************************
                             *                          FUNCTION                          *
                             **************************************************************
                             undefined FUN_CODE_05ce()
                               assume membank = 0x0
             undefined         A:1            <RETURN>
                             FUN_CODE_05ce                                   XREF[1]:     FUN_CODE_0bca:0bce(c)  
       CODE:05ce fc              MOV        A,R4
                             **************************************************************
                             *                          FUNCTION                          *
                             **************************************************************
                             undefined FUN_CODE_05cf()
                               assume membank = 0x0
             undefined         A:1            <RETURN>
                             FUN_CODE_05cf                                   XREF[4]:     RESET:027b(c), 
                                                                                          300FuelLookup:069c(c), 
                                                                                          LookupA:0714(c), 
                                                                                          FUN_CODE_0d79:0d86(c)  
       CODE:05cf 6b              ADD        A,R3
       CODE:05d0 ab              MOV        R3,A
       CODE:05d1 27              CLR        A
       CODE:05d2 7a              ADDC       A,R2
       CODE:05d3 aa              MOV        R2,A
       CODE:05d4 83              RET
                             **************************************************************
                             *                          FUNCTION                          *
                             **************************************************************
                             undefined FUN_CODE_05d5()
                               assume membank = 0x0
             undefined         A:1            <RETURN>
                             FUN_CODE_05d5                                   XREF[8]:     RESET:0133(c), RESET:014f(c), 
                                                                                          RESET:015a(c), RESET:0209(c), 
                                                                                          RESET:0267(c), RESET:0287(c), 
                                                                                          RESET:04db(c), 
                                                                                          FUN_CODE_0d79:0d92(c)  
       CODE:05d5 fb              MOV        A,R3                                             R3 = Map Value
       CODE:05d6 03 08           ADD        A,#0x8
       CODE:05d8 e6 db           JNC        LAB_CODE_05db                                    Jump if value > F7/247
       CODE:05da 1a              INC        R2
                             LAB_CODE_05db                                   XREF[1]:     CODE:05d8(j)  
       CODE:05db 47              SWAP       A
       CODE:05dc 53 0f           ANL        A,#0xf
       CODE:05de ab              MOV        R3,A
       CODE:05df fa              MOV        A,R2
       CODE:05e0 92 e6           JB0x4      LAB_CODE_05e6
       CODE:05e2 47              SWAP       A
       CODE:05e3 4b              ORL        A,R3
       CODE:05e4 a4 e8           JMP        LAB_CODE_05e8
                             LAB_CODE_05e6                                   XREF[1]:     CODE:05e0(j)  
       CODE:05e6 23 ff           MOV        A,#0xff
                             LAB_CODE_05e8                                   XREF[1]:     CODE:05e4(j)  
       CODE:05e8 83              RET
                             **************************************************************
                             *                          FUNCTION                          *
                             **************************************************************
                             undefined FUN_CODE_05e9()
                               assume membank = 0x0
             undefined         A:1            <RETURN>
                             FUN_CODE_05e9                                   XREF[2]:     RESET:0197(c), 
                                                                                          FUN_CODE_06a6:06db(c)  
       CODE:05e9 fb              MOV        A,R3
       CODE:05ea f7              RLC        A
       CODE:05eb ab              MOV        R3,A
       CODE:05ec fa              MOV        A,R2
       CODE:05ed f7              RLC        A
       CODE:05ee aa              MOV        R2,A
                             **************************************************************
                             *                          FUNCTION                          *
                             **************************************************************
                             undefined FUN_CODE_05ef()
                               assume membank = 0x0
             undefined         A:1            <RETURN>
                             FUN_CODE_05ef                                   XREF[2]:     RESET:027f(c), 
                                                                                          FUN_CODE_06a6:06ea(c)  
       CODE:05ef fb              MOV        A,R3
       CODE:05f0 f7              RLC        A
       CODE:05f1 ab              MOV        R3,A
       CODE:05f2 fa              MOV        A,R2
       CODE:05f3 f7              RLC        A
       CODE:05f4 aa              MOV        R2,A
                             **************************************************************
                             *                          FUNCTION                          *
                             **************************************************************
                             undefined FUN_CODE_05f5()
                               assume membank = 0x0
             undefined         A:1            <RETURN>
                             FUN_CODE_05f5                                   XREF[1]:     FUN_CODE_06a6:06f4(c)  
       CODE:05f5 fb              MOV        A,R3
       CODE:05f6 03 08           ADD        A,#0x8
       CODE:05f8 e6 fb           JNC        LAB_CODE_05fb
       CODE:05fa 1a              INC        R2
                             LAB_CODE_05fb                                   XREF[1]:     CODE:05f8(j)  
       CODE:05fb 53 f0           ANL        A,#0xf0
       CODE:05fd ab              MOV        R3,A
       CODE:05fe fa              MOV        A,R2
       CODE:05ff 53 0f           ANL        A,#0xf
       CODE:0601 4b              ORL        A,R3
       CODE:0602 47              SWAP       A
       CODE:0603 ab              MOV        R3,A
       CODE:0604 fa              MOV        A,R2
       CODE:0605 53 f0           ANL        A,#0xf0
       CODE:0607 47              SWAP       A
       CODE:0608 aa              MOV        R2,A
       CODE:0609 83              RET
                             **************************************************************
                             *                          FUNCTION                          *
                             **************************************************************
                             undefined FUN_CODE_060a()
                               assume membank = 0x0
             undefined         A:1            <RETURN>
                             FUN_CODE_060a                                   XREF[1]:     RESET:043a(c)  
       CODE:060a b8 44           MOV        R0,#0x44
       CODE:060c b9 40           MOV        R1,#0x40
       CODE:060e f1              MOV        A,@R1=>DAT_INTMEM_40                             = ??
       CODE:060f f2 19           JB0x7      LAB_CODE_0619
       CODE:0611 60              ADD        A,@R0=>DAT_INTMEM_44                             = ??
       CODE:0612 a0              MOV        @R0=>DAT_INTMEM_44,A                             = ??
       CODE:0613 18              INC        R0
       CODE:0614 e6 21           JNC        LAB_CODE_0621
       CODE:0616 10              INC        @R0=>DAT_INTMEM_45                               = ??
       CODE:0617 c4 21           JMP        LAB_CODE_0621
                             LAB_CODE_0619                                   XREF[1]:     CODE:060f(j)  
       CODE:0619 60              ADD        A,@R0=>DAT_INTMEM_44                             = ??
       CODE:061a a0              MOV        @R0=>DAT_INTMEM_44,A                             = ??
       CODE:061b 18              INC        R0
       CODE:061c f6 21           JC         LAB_CODE_0621
       CODE:061e f0              MOV        A,@R0=>DAT_INTMEM_45                             = ??
       CODE:061f 07              DEC        A
       CODE:0620 a0              MOV        @R0=>DAT_INTMEM_45,A                             = ??
                             LAB_CODE_0621                                   XREF[3]:     CODE:0614(j), CODE:0617(j), 
                                                                                          CODE:061c(j)  
       CODE:0621 18              INC        R0
       CODE:0622 10              INC        @R0=>DAT_INTMEM_46                               = ??
       CODE:0623 f0              MOV        A,@R0=>DAT_INTMEM_46                             = ??
       CODE:0624 b9 4f           MOV        R1,#0x4f
       CODE:0626 61              ADD        A,@R1=>DAT_INTMEM_4f                             = ??
       CODE:0627 96 52           JNZ        LAB_CODE_0652
       CODE:0629 a0              MOV        @R0=>DAT_INTMEM_46,A                             = ??
       CODE:062a f1              MOV        A,@R1=>DAT_INTMEM_4f                             = ??
       CODE:062b b9 45           MOV        R1,#0x45
       CODE:062d b8 43           MOV        R0,#0x43
       CODE:062f c6 39           JZ         LAB_CODE_0639
       CODE:0631 f1              MOV        A,@R1=>DAT_INTMEM_45                             = ??
       CODE:0632 53 fe           ANL        A,#0xfe
       CODE:0634 77              RR         A
       CODE:0635 d2 46           JB0x6      LAB_CODE_0646
       CODE:0637 c4 3d           JMP        LAB_CODE_063d
                             LAB_CODE_0639                                   XREF[1]:     CODE:062f(j)  
       CODE:0639 f1              MOV        A,@R1=>DAT_INTMEM_45                             = ??
       CODE:063a 47              SWAP       A
       CODE:063b 72 46           JB0x3      LAB_CODE_0646
                             LAB_CODE_063d                                   XREF[1]:     CODE:0637(j)  
       CODE:063d 53 0f           ANL        A,#0xf
       CODE:063f 60              ADD        A,@R0=>DAT_INTMEM_43                             = ??
       CODE:0640 e6 4d           JNC        LAB_CODE_064d
       CODE:0642 23 ff           MOV        A,#0xff
       CODE:0644 c4 4d           JMP        LAB_CODE_064d
                             LAB_CODE_0646                                   XREF[2]:     CODE:0635(j), CODE:063b(j)  
       CODE:0646 43 f0           ORL        A,#0xf0
       CODE:0648 60              ADD        A,@R0=>DAT_INTMEM_43                             = ??
       CODE:0649 f6 4d           JC         LAB_CODE_064d
       CODE:064b 23 01           MOV        A,#0x1
                             LAB_CODE_064d                                   XREF[3]:     CODE:0640(j), CODE:0644(j), 
                                                                                          CODE:0649(j)  
       CODE:064d a0              MOV        @R0=>DAT_INTMEM_43,A                             = ??
       CODE:064e 27              CLR        A
       CODE:064f a1              MOV        @R1=>DAT_INTMEM_45,A                             = ??
       CODE:0650 c9              DEC        R1
       CODE:0651 a1              MOV        @R1=>DAT_INTMEM_44,A                             = ??
                             LAB_CODE_0652                                   XREF[1]:     CODE:0627(j)  
       CODE:0652 b8 43           MOV        R0,#0x43
       CODE:0654 b9 23           MOV        R1,#0x23
       CODE:0656 f1              MOV        A,@R1=>DAT_INTMEM_23                             = ??
       CODE:0657 03 4a           ADD        A,#0x4a
       CODE:0659 b9 62           MOV        R1,#0x62
       CODE:065b f6 65           JC         LAB_CODE_0665
       CODE:065d 03 09           ADD        A,#0x9
       CODE:065f f6 76           JC         LAB_CODE_0676
       CODE:0661 b1 00           MOV        @R1=>DAT_INTMEM_62,#0x0                          = ??
       CODE:0663 c4 76           JMP        LAB_CODE_0676
                             LAB_CODE_0665                                   XREF[1]:     CODE:065b(j)  
       CODE:0665 f1              MOV        A,@R1=>DAT_INTMEM_62                             = ??
       CODE:0666 96 76           JNZ        LAB_CODE_0676
       CODE:0668 b1 01           MOV        @R1=>DAT_INTMEM_62,#0x1                          = ??
       CODE:066a f0              MOV        A,@R0=>DAT_INTMEM_43                             = ??
       CODE:066b f2 76           JB0x7      LAB_CODE_0676
       CODE:066d 03 80           ADD        A,#0x80
       CODE:066f 37              CPL        A
       CODE:0670 97              CLR        C
       CODE:0671 67              RRC        A
       CODE:0672 37              CPL        A
       CODE:0673 03 80           ADD        A,#0x80
       CODE:0675 a0              MOV        @R0=>DAT_INTMEM_43,A                             = ??
                             LAB_CODE_0676                                   XREF[4]:     CODE:065f(j), CODE:0663(j), 
                                                                                          CODE:0666(j), CODE:066b(j)  
       CODE:0676 c4 f8           JMP        LAB_CODE_06f8
                             **************************************************************
                             *                          FUNCTION                          *
                             **************************************************************
                             undefined FUN_CODE_0678()
                               assume membank = 0x0
             undefined         A:1            <RETURN>
                             FUN_CODE_0678                                   XREF[2]:     RESET:02e3(c), RESET:02f6(c)  
       CODE:0678 53 f0           ANL        A,#0xf0
       CODE:067a a8              MOV        R0,A
       CODE:067b b9 23           MOV        R1,#0x23
       CODE:067d f1              MOV        A,@R1=>DAT_INTMEM_23                             = ??
       CODE:067e a9              MOV        R1,A
       CODE:067f b4 c0           CALL       RegCleanup                                       undefined RegCleanup(void)
                             LAB_CODE_0681                                   XREF[1]:     CODE:06a3(j)  
       CODE:0681 f9              MOV        A,R1
       CODE:0682 53 f0           ANL        A,#0xf0
       CODE:0684 47              SWAP       A
       CODE:0685 68              ADD        A,R0
       CODE:0686 ad              MOV        R5,A
       CODE:0687 0a              IN         A,P2=>P2                                         Checking Config Pins
       CODE:0688 f2 9a           JB0x7      300FuelLookup                                    If CFG Jumper cut, use PAGE3 Map
       CODE:068a 92 93           JB0x4      LAB_CODE_0693
       CODE:068c fd              MOV        A,R5
       CODE:068d f5              SEL        MB1
       CODE:068e f4 10           CALL       F00FuelLookup                                    undefined F00FuelLookup()
       CODE:0690 e5              SEL        MB0
       CODE:0691 c4 9c           JMP        LAB_CODE_069c
                             LAB_CODE_0693                                   XREF[1]:     CODE:068a(j)  
       CODE:0693 fd              MOV        A,R5
       CODE:0694 f5              SEL        MB1
       CODE:0695 d4 10           CALL       E00FuelLookup                                    Lookup R5
       CODE:0697 e5              SEL        MB0
       CODE:0698 c4 9c           JMP        LAB_CODE_069c
                             **************************************************************
                             *                          FUNCTION                          *
                             **************************************************************
                             undefined 300FuelLookup()
                               assume membank = 0x0
             undefined         A:1            <RETURN>
                             300FuelLookup                                   XREF[1]:     CODE:0688(j)  
       CODE:069a fd              MOV        A,R5
       CODE:069b e3              MOVP3      A,@A
                             LAB_CODE_069c                                   XREF[2]:     CODE:0691(j), CODE:0698(j)  
       CODE:069c b4 cf           CALL       FUN_CODE_05cf                                    undefined FUN_CODE_05cf()
       CODE:069e 19              INC        R1
       CODE:069f f9              MOV        A,R1
       CODE:06a0 96 a3           JNZ        LAB_CODE_06a3
       CODE:06a2 c9              DEC        R1
                             LAB_CODE_06a3                                   XREF[1]:     CODE:06a0(j)  
       CODE:06a3 ec 81           DJNZ       R4,LAB_CODE_0681
       CODE:06a5 83              RET
                             **************************************************************
                             *                          FUNCTION                          *
                             **************************************************************
                             undefined FUN_CODE_06a6()
                               assume membank = 0x0
             undefined         A:1            <RETURN>
                             FUN_CODE_06a6                                   XREF[1]:     RESET:0401(c)  
       CODE:06a6 b4 c0           CALL       RegCleanup                                       undefined RegCleanup(void)
       CODE:06a8 b8 32           MOV        R0,#0x32
       CODE:06aa f0              MOV        A,@R0=>DAT_INTMEM_32                             = ??
       CODE:06ab 53 0f           ANL        A,#0xf
       CODE:06ad 47              SWAP       A
       CODE:06ae a8              MOV        R0,A
       CODE:06af b9 4a           MOV        R1,#0x4a
                             LAB_CODE_06b1                                   XREF[1]:     CODE:06c1(j)  
       CODE:06b1 f1              MOV        A,@R1=>DAT_INTMEM_4a                             = ??
       CODE:06b2 6b              ADD        A,R3
       CODE:06b3 ab              MOV        R3,A
       CODE:06b4 19              INC        R1
       CODE:06b5 f1              MOV        A,@R1=>DAT_INTMEM_4b                             = ??
       CODE:06b6 7a              ADDC       A,R2
       CODE:06b7 aa              MOV        R2,A
       CODE:06b8 c9              DEC        R1
       CODE:06b9 f8              MOV        A,R0
       CODE:06ba 03 10           ADD        A,#0x10
       CODE:06bc a8              MOV        R0,A
       CODE:06bd e6 c1           JNC        LAB_CODE_06c1
       CODE:06bf 19              INC        R1
       CODE:06c0 19              INC        R1
                             LAB_CODE_06c1                                   XREF[1]:     CODE:06bd(j)  
       CODE:06c1 ec b1           DJNZ       R4,LAB_CODE_06b1
       CODE:06c3 fb              MOV        A,R3
       CODE:06c4 03 08           ADD        A,#0x8
       CODE:06c6 ab              MOV        R3,A
       CODE:06c7 fa              MOV        A,R2
       CODE:06c8 13 00           ADDC       A,#0x0
       CODE:06ca aa              MOV        R2,A
       CODE:06cb fb              MOV        A,R3
       CODE:06cc 53 f0           ANL        A,#0xf0
       CODE:06ce 47              SWAP       A
       CODE:06cf ab              MOV        R3,A
       CODE:06d0 fa              MOV        A,R2
       CODE:06d1 53 0f           ANL        A,#0xf
       CODE:06d3 47              SWAP       A
       CODE:06d4 4b              ORL        A,R3
       CODE:06d5 ab              MOV        R3,A
       CODE:06d6 fa              MOV        A,R2
       CODE:06d7 53 f0           ANL        A,#0xf0
       CODE:06d9 47              SWAP       A
       CODE:06da aa              MOV        R2,A
       CODE:06db b4 e9           CALL       FUN_CODE_05e9                                    undefined FUN_CODE_05e9()
       CODE:06dd b4 c7           CALL       FUN_CODE_05c7                                    undefined FUN_CODE_05c7()
       CODE:06df b9 36           MOV        R1,#0x36
       CODE:06e1 f1              MOV        A,@R1=>ECT                                       = ??
       CODE:06e2 03 f6           ADD        A,#0xf6
       CODE:06e4 e6 ee           JNC        LAB_CODE_06ee
       CODE:06e6 b8 36           MOV        R0,#0x36
       CODE:06e8 f4 08           CALL       ReadECTMap                                       undefined ReadECTMap(void)
       CODE:06ea b4 ef           CALL       FUN_CODE_05ef                                    undefined FUN_CODE_05ef()
       CODE:06ec b4 c7           CALL       FUN_CODE_05c7                                    undefined FUN_CODE_05c7()
                             LAB_CODE_06ee                                   XREF[1]:     CODE:06e4(j)  
       CODE:06ee b9 37           MOV        R1,#0x37
       CODE:06f0 b8 69           MOV        R0,#0x69
       CODE:06f2 f4 0a           CALL       LookupR1Mem                                      undefined LookupR1Mem()
       CODE:06f4 b4 f5           CALL       FUN_CODE_05f5                                    undefined FUN_CODE_05f5()
       CODE:06f6 a4 c7           JMP        FUN_CODE_05c7                                    undefined FUN_CODE_05c7()
                             -- Flow Override: CALL_RETURN (CALL_TERMINATOR)
                             LAB_CODE_06f8                                   XREF[1]:     CODE:0676(j)  
       CODE:06f8 f0              MOV        A,@R0=>DAT_INTMEM_43                             = ??
       CODE:06f9 ba 00           MOV        R2,#0x0
       CODE:06fb e4 05           JMP        LAB_CODE_0705
                             **************************************************************
                             *                          FUNCTION                          *
                             **************************************************************
                             undefined FUN_CODE_06fd()
                               assume membank = 0x0
             undefined         A:1            <RETURN>
                             FUN_CODE_06fd                                   XREF[3]:     RESET:02da(c), RESET:02de(c), 
                                                                                          RESET:040c(c)  
       CODE:06fd f0              MOV        A,@R0
       CODE:06fe 53 80           ANL        A,#0x80
       CODE:0700 e7              RL         A
       CODE:0701 aa              MOV        R2,A
       CODE:0702 f0              MOV        A,@R0
       CODE:0703 97              CLR        C
       CODE:0704 f7              RLC        A
                             LAB_CODE_0705                                   XREF[1]:     CODE:06fb(j)  
       CODE:0705 ab              MOV        R3,A
       CODE:0706 a4 c7           JMP        FUN_CODE_05c7                                    undefined FUN_CODE_05c7()
                             -- Flow Override: CALL_RETURN (CALL_TERMINATOR)
                             **************************************************************
                             *                          FUNCTION                          *
                             **************************************************************
                             undefined ReadECTMap(void)
                               assume membank = 0x0
             undefined         A:1            <RETURN>
                             ReadECTMap                                      XREF[6]:     RESET:014d(c), RESET:0158(c), 
                                                                                          RESET:0195(c), RESET:0265(c), 
                                                                                          RESET:0285(c), 
                                                                                          FUN_CODE_06a6:06e8(c)  
       CODE:0708 b9 36           MOV        R1,#0x36
                             **************************************************************
                             *                          FUNCTION                          *
                             **************************************************************
                             undefined LookupR1Mem()
                               assume membank = 0x0
             undefined         A:1            <RETURN>
                             LookupR1Mem                                     XREF[3]:     RESET:0207(c), RESET:04d9(c), 
                                                                                          FUN_CODE_06a6:06f2(c)  
       CODE:070a f1              MOV        A,@R1=>ECT                                       = ??
                             **************************************************************
                             *                          FUNCTION                          *
                             **************************************************************
                             undefined LookupA()
                               assume membank = 0x0
             undefined         A:1            <RETURN>
                             LookupA                                         XREF[2]:     RESET:0131(c), RESET:04bd(c)  
       CODE:070b a9              MOV        R1,A                                             R1 = ECT
       CODE:070c b4 c0           CALL       RegCleanup                                       undefined RegCleanup(void)
                             LAB_CODE_070e                                   XREF[1]:     CODE:071c(j)  
       CODE:070e f9              MOV        A,R1
       CODE:070f 53 f0           ANL        A,#0xf0
       CODE:0711 47              SWAP       A
       CODE:0712 78              ADDC       A,R0
       CODE:0713 a3              MOVP       A,@A
       CODE:0714 b4 cf           CALL       FUN_CODE_05cf                                    undefined FUN_CODE_05cf()
       CODE:0716 19              INC        R1
       CODE:0717 f9              MOV        A,R1
       CODE:0718 96 1c           JNZ        LAB_CODE_071c
       CODE:071a c9              DEC        R1
       CODE:071b a7              CPL        C
                             LAB_CODE_071c                                   XREF[1]:     CODE:0718(j)  
       CODE:071c ec 0e           DJNZ       R4,LAB_CODE_070e
       CODE:071e 83              RET
                             **************************************************************
                             *                          FUNCTION                          *
                             **************************************************************
                             undefined MAGIC7S(void)
                               assume membank = 0x0
             undefined         A:1            <RETURN>
                             MAGIC7S                                         XREF[1]:     RESET:0254(c)  
       CODE:071f 47              SWAP       A
       CODE:0720 53 0f           ANL        A,#0xf
       CODE:0722 68              ADD        A,R0
       CODE:0723 a3              MOVP       A,@A
       CODE:0724 83              RET
       CODE:0725 0d              ??         0Dh
       CODE:0726 0d              ??         0Dh
       CODE:0727 23              ??         23h    #
       CODE:0728 36              ??         36h    6
       CODE:0729 44              ??         44h    D
       CODE:072a 54              ??         54h    T
       CODE:072b 5f              ??         5Fh    _
       CODE:072c 6a              ??         6Ah    j
       CODE:072d 72              ??         72h    r
       CODE:072e 7b              ??         7Bh    {
       CODE:072f 83              ??         83h
       CODE:0730 8e              ??         8Eh
       CODE:0731 96              ??         96h
       CODE:0732 9f              ??         9Fh
       CODE:0733 9f              ??         9Fh
       CODE:0734 9f              ??         9Fh
       CODE:0735 4e              ??         4Eh    N
       CODE:0736 00              ??         00h
       CODE:0737 05              ??         05h
       CODE:0738 0b              ??         0Bh
       CODE:0739 1b              ??         1Bh
       CODE:073a 28 34 3b        ds         "(4;BITYbirr"
                 42 49 54 
                 59 62 69 
       CODE:0746 00              ??         00h
       CODE:0747 15              ??         15h
       CODE:0748 26              ??         26h    &
       CODE:0749 2c              ??         2Ch    ,
       CODE:074a 31              ??         31h    1
       CODE:074b 3f              ??         3Fh    ?
       CODE:074c 4b              ??         4Bh    K
       CODE:074d 5a              ??         5Ah    Z
       CODE:074e 6b              ??         6Bh    k
       CODE:074f 71              ??         71h    q
       CODE:0750 83              ??         83h
       CODE:0751 93              ??         93h
       CODE:0752 a6              ??         A6h
       CODE:0753 b5              ??         B5h
       CODE:0754 ca              ??         CAh
       CODE:0755 cb              ??         CBh
       CODE:0756 cc              ??         CCh
       CODE:0757 64              ??         64h    d
       CODE:0758 00              ??         00h
       CODE:0759 00              ??         00h
       CODE:075a 35              ??         35h    5
       CODE:075b 4c              ??         4Ch    L
       CODE:075c 5a              ??         5Ah    Z
       CODE:075d 65              ??         65h    e
       CODE:075e 6d              ??         6Dh    m
       CODE:075f 73              ??         73h    s
       CODE:0760 7a              ??         7Ah    z
       CODE:0761 85              ??         85h
       CODE:0762 8d              ??         8Dh
       CODE:0763 97              ??         97h
       CODE:0764 a1              ??         A1h
       CODE:0765 a1              ??         A1h
       CODE:0766 a1              ??         A1h
       CODE:0767 a1              ??         A1h
       CODE:0768 00              ??         00h
       CODE:0769 30              ??         30h    0
       CODE:076a 30              ??         30h    0
       CODE:076b 1c              ??         1Ch
       CODE:076c 1d              ??         1Dh
       CODE:076d 22              ??         22h    "
       CODE:076e 2a              ??         2Ah    *
       CODE:076f 30              ??         30h    0
       CODE:0770 35              ??         35h    5
       CODE:0771 3a              ??         3Ah    :
       CODE:0772 3f              ??         3Fh    ?
       CODE:0773 44              ??         44h    D
       CODE:0774 49              ??         49h    I
       CODE:0775 4d              ??         4Dh    M
       CODE:0776 54              ??         54h    T
       CODE:0777 5a              ??         5Ah    Z
       CODE:0778 5f              ??         5Fh    _
       CODE:0779 20              ??         20h     
       CODE:077a ff              ??         FFh
       CODE:077b ff              ??         FFh
       CODE:077c ff              ??         FFh
       CODE:077d ff              ??         FFh
       CODE:077e ff              ??         FFh
       CODE:077f ff              ??         FFh
       CODE:0780 b6              ??         B6h
       CODE:0781 55              ??         55h    U
       CODE:0782 13              ??         13h
       CODE:0783 00              ??         00h
       CODE:0784 00              ??         00h
       CODE:0785 00              ??         00h
       CODE:0786 00              ??         00h
       CODE:0787 00              ??         00h
       CODE:0788 00              ??         00h
       CODE:0789 00              ??         00h
       CODE:078a 00              ??         00h
       CODE:078b 80              ??         80h
       CODE:078c 86              ??         86h
       CODE:078d 8c              ??         8Ch
       CODE:078e 92              ??         92h
       CODE:078f 98              ??         98h
       CODE:0790 9f              ??         9Fh
       CODE:0791 a6              ??         A6h
       CODE:0792 ad              ??         ADh
       CODE:0793 b5              ??         B5h
       CODE:0794 bd              ??         BDh
       CODE:0795 c5              ??         C5h
       CODE:0796 ce              ??         CEh
       CODE:0797 d7              ??         D7h
       CODE:0798 e1              ??         E1h
       CODE:0799 eb              ??         EBh
       CODE:079a f5              ??         F5h
       CODE:079b ff              ??         FFh
       CODE:079c f8              ??         F8h
       CODE:079d f8              ??         F8h
       CODE:079e f8              ??         F8h
       CODE:079f f8              ??         F8h
       CODE:07a0 f8              ??         F8h
       CODE:07a1 f8              ??         F8h
       CODE:07a2 f8              ??         F8h
       CODE:07a3 f8              ??         F8h
       CODE:07a4 f6              ??         F6h
       CODE:07a5 f4              ??         F4h
       CODE:07a6 f2              ??         F2h
       CODE:07a7 f0              ??         F0h
       CODE:07a8 ef              ??         EFh
       CODE:07a9 ef              ??         EFh
       CODE:07aa ef              ??         EFh
       CODE:07ab ef              ??         EFh
       CODE:07ac 10              ??         10h
       CODE:07ad 10              ??         10h
       CODE:07ae 35              ??         35h    5
       CODE:07af 37              ??         37h    7
       CODE:07b0 38              ??         38h    8
       CODE:07b1 4b              ??         4Bh    K
       CODE:07b2 54              ??         54h    T
       CODE:07b3 60              ??         60h    `
       CODE:07b4 65              ??         65h    e
       CODE:07b5 6f              ??         6Fh    o
       CODE:07b6 7b              ??         7Bh    {
       CODE:07b7 85              ??         85h
       CODE:07b8 8e              ??         8Eh
       CODE:07b9 97              ??         97h
       CODE:07ba 97              ??         97h
       CODE:07bb 97              ??         97h
       CODE:07bc 40              ??         40h    @
       CODE:07bd 00              ??         00h
       CODE:07be 00              ??         00h
       CODE:07bf 10              ??         10h
       CODE:07c0 15              ??         15h
       CODE:07c1 19              ??         19h
       CODE:07c2 1c              ??         1Ch
       CODE:07c3 21              ??         21h    !
       CODE:07c4 25              ??         25h    %
       CODE:07c5 2e              ??         2Eh    .
       CODE:07c6 31              ??         31h    1
       CODE:07c7 32              ??         32h    2
       CODE:07c8 33              ??         33h    3
       CODE:07c9 34              ??         34h    4
       CODE:07ca 35              ??         35h    5
       CODE:07cb 37              ??         37h    7
       CODE:07cc 3a              ??         3Ah    :
       CODE:07cd 00              ??         00h
       CODE:07ce 00              ??         00h
       CODE:07cf 44              ??         44h    D
       CODE:07d0 00              ??         00h
       CODE:07d1 00              ??         00h
       CODE:07d2 00              ??         00h
       CODE:07d3 ff              ??         FFh
       CODE:07d4 f8              ??         F8h
       CODE:07d5 f0              ??         F0h
       CODE:07d6 e8              ??         E8h
       CODE:07d7 e0              ??         E0h
       CODE:07d8 d8              ??         D8h
       CODE:07d9 d0              ??         D0h
       CODE:07da c8              ??         C8h
       CODE:07db c0              ??         C0h
       CODE:07dc b8              ??         B8h
       CODE:07dd b0              ??         B0h
       CODE:07de a8              ??         A8h
       CODE:07df a0              ??         A0h
       CODE:07e0 a0              ??         A0h
       CODE:07e1 a0              ??         A0h
       CODE:07e2 a0              ??         A0h
       CODE:07e3 41              ??         41h    A
       CODE:07e4 41              ??         41h    A
       CODE:07e5 41              ??         41h    A
       CODE:07e6 41              ??         41h    A
       CODE:07e7 41              ??         41h    A
       CODE:07e8 41              ??         41h    A
       CODE:07e9 41              ??         41h    A
       CODE:07ea 46              ??         46h    F
       CODE:07eb 52              ??         52h    R
       CODE:07ec 49              ??         49h    I
       CODE:07ed 45              ??         45h    E
       CODE:07ee 53              ??         53h    S
       CODE:07ef 45              ??         45h    E
       CODE:07f0 56              ??         56h    V
       CODE:07f1 34              ??         34h    4
       CODE:07f2 37              ??         37h    7
       CODE:07f3 37              ??         37h    7
       CODE:07f4 3a              ??         3Ah    :
       CODE:07f5 42              ??         42h    B
       CODE:07f6 4f              ??         4Fh    O
       CODE:07f7 48              ??         48h    H
       CODE:07f8 4e              ??         4Eh    N
       CODE:07f9 3a              ??         3Ah    :
       CODE:07fa 30              ??         30h    0
       CODE:07fb 37              ??         37h    7
       CODE:07fc 30              ??         30h    0
       CODE:07fd 37              ??         37h    7
       CODE:07fe 38              ??         38h    8
       CODE:07ff 37              ??         37h    7
                             **************************************************************
                             *                          FUNCTION                          *
                             **************************************************************
                             undefined FUN_CODE_0800()
                               assume membank = 0x1
             undefined         A:1            <RETURN>
                             FUN_CODE_0800                                   XREF[1]:     RESET:0435(c)  
       CODE:0800 8a 60           ORL        P2,#0x60
       CODE:0802 0a              IN         A,P2=>P2                                         = ??
       CODE:0803 ad              MOV        R5,A
       CODE:0804 d2 0e           JB0x6      LAB_CODE_080e
       CODE:0806 37              CPL        A
       CODE:0807 b2 0e           JB0x5      LAB_CODE_080e
       CODE:0809 b8 41           MOV        R0,#0x41
       CODE:080b 10              INC        @R0=>DAT_INTMEM_41                               = ??
       CODE:080c 04 87           JMP        LAB_CODE_0887
                             LAB_CODE_080e                                   XREF[2]:     CODE:0804(j), CODE:0807(j)  
       CODE:080e b8 36           MOV        R0,#0x36
       CODE:0810 b9 47           MOV        R1,#0x47
       CODE:0812 f0              MOV        A,@R0=>ECT                                       = ??
       CODE:0813 61              ADD        A,@R1=>DAT_INTMEM_47                             = ??
       CODE:0814 f6 87           JC         LAB_CODE_0887
       CODE:0816 b9 22           MOV        R1,#0x22
       CODE:0818 f1              MOV        A,@R1=>AC?                                       = ??
       CODE:0819 37              CPL        A
       CODE:081a 32 2b           JB0x1      LAB_CODE_082b
       CODE:081c f0              MOV        A,@R0=>ECT                                       = ??
       CODE:081d 03 eb           ADD        A,#0xeb
       CODE:081f e6 2b           JNC        LAB_CODE_082b
       CODE:0821 b8 40           MOV        R0,#0x40
       CODE:0823 b0 00           MOV        @R0=>DAT_INTMEM_40,#0x0                          = ??
       CODE:0825 b8 43           MOV        R0,#0x43
       CODE:0827 b0 80           MOV        @R0=>DAT_INTMEM_43,#0x80                         = ??
       CODE:0829 04 87           JMP        LAB_CODE_0887
                             LAB_CODE_082b                                   XREF[2]:     CODE:081a(j), CODE:081f(j)  
       CODE:082b b8 3d           MOV        R0,#0x3d
       CODE:082d f0              MOV        A,@R0=>DAT_INTMEM_3d                             = ??
       CODE:082e 96 87           JNZ        LAB_CODE_0887
       CODE:0830 18              INC        R0
       CODE:0831 b9 3f           MOV        R1,#0x3f
       CODE:0833 fd              MOV        A,R5
       CODE:0834 b2 43           JB0x5      LAB_CODE_0843
       CODE:0836 d0              XRL        A,@R0=>DAT_INTMEM_3e                             = ??
       CODE:0837 b2 3d           JB0x5      LAB_CODE_083d
       CODE:0839 ba ff           MOV        R2,#0xff
       CODE:083b 04 4e           JMP        LAB_CODE_084e
                             LAB_CODE_083d                                   XREF[1]:     CODE:0837(j)  
       CODE:083d b8 57           MOV        R0,#0x57
       CODE:083f 94 29           CALL       300Lookup_INT23                                  undefined 300Lookup_INT23()
       CODE:0841 04 4e           JMP        LAB_CODE_084e
                             LAB_CODE_0843                                   XREF[1]:     CODE:0834(j)  
       CODE:0843 d0              XRL        A,@R0=>DAT_INTMEM_3e                             = ??
       CODE:0844 b2 4a           JB0x5      LAB_CODE_084a
       CODE:0846 ba 01           MOV        R2,#0x1
       CODE:0848 04 4e           JMP        LAB_CODE_084e
                             LAB_CODE_084a                                   XREF[1]:     CODE:0844(j)  
       CODE:084a b8 47           MOV        R0,#0x47
       CODE:084c 94 29           CALL       300Lookup_INT23                                  undefined 300Lookup_INT23()
                             LAB_CODE_084e                                   XREF[3]:     CODE:083b(j), CODE:0841(j), 
                                                                                          CODE:0848(j)  
       CODE:084e f1              MOV        A,@R1=>DAT_INTMEM_3f                             = ??
       CODE:084f 07              DEC        A
       CODE:0850 a1              MOV        @R1=>DAT_INTMEM_3f,A                             = ??
       CODE:0851 96 83           JNZ        LAB_CODE_0883
       CODE:0853 b8 40           MOV        R0,#0x40
       CODE:0855 f0              MOV        A,@R0=>DAT_INTMEM_40                             = ??
       CODE:0856 ab              MOV        R3,A
       CODE:0857 6a              ADD        A,R2
       CODE:0858 a0              MOV        @R0=>DAT_INTMEM_40,A                             = ??
       CODE:0859 b8 67           MOV        R0,#0x67
       CODE:085b 0a              IN         A,P2=>P2                                         = ??
       CODE:085c f2 60           JB0x7      LAB_CODE_0860
       CODE:085e b8 37           MOV        R0,#0x37
                             LAB_CODE_0860                                   XREF[1]:     CODE:085c(j)  
       CODE:0860 94 29           CALL       300Lookup_INT23                                  undefined 300Lookup_INT23()
       CODE:0862 a1              MOV        @R1=>DAT_INTMEM_3f,A                             = ??
       CODE:0863 b9 41           MOV        R1,#0x41
       CODE:0865 b8 40           MOV        R0,#0x40
       CODE:0867 f0              MOV        A,@R0=>DAT_INTMEM_40                             = ??
       CODE:0868 03 87           ADD        A,#0x87
       CODE:086a e6 71           JNC        LAB_CODE_0871
       CODE:086c f0              MOV        A,@R0=>DAT_INTMEM_40                             = ??
       CODE:086d 03 78           ADD        A,#0x78
       CODE:086f e6 75           JNC        LAB_CODE_0875
                             LAB_CODE_0871                                   XREF[1]:     CODE:086a(j)  
       CODE:0871 b1 00           MOV        @R1=>DAT_INTMEM_41,#0x0                          = ??
       CODE:0873 04 83           JMP        LAB_CODE_0883
                             LAB_CODE_0875                                   XREF[1]:     CODE:086f(j)  
       CODE:0875 fb              MOV        A,R3
       CODE:0876 a0              MOV        @R0=>DAT_INTMEM_40,A                             = ??
       CODE:0877 f7              RLC        A
       CODE:0878 b9 43           MOV        R1,#0x43
       CODE:087a f1              MOV        A,@R1=>DAT_INTMEM_43                             = ??
       CODE:087b f6 7f           JC         LAB_CODE_087f
       CODE:087d 17              INC        A
       CODE:087e 17              INC        A
                             LAB_CODE_087f                                   XREF[1]:     CODE:087b(j)  
       CODE:087f 07              DEC        A
       CODE:0880 c6 83           JZ         LAB_CODE_0883
       CODE:0882 a1              MOV        @R1=>DAT_INTMEM_43,A                             = ??
                             LAB_CODE_0883                                   XREF[3]:     CODE:0851(j), CODE:0873(j), 
                                                                                          CODE:0880(j)  
       CODE:0883 b8 3e           MOV        R0,#0x3e
       CODE:0885 fd              MOV        A,R5
       CODE:0886 a0              MOV        @R0=>DAT_INTMEM_3e,A                             = ??
                             LAB_CODE_0887                                   XREF[4]:     CODE:080c(j), CODE:0814(j), 
                                                                                          CODE:0829(j), CODE:082e(j)  
       CODE:0887 b8 41           MOV        R0,#0x41
       CODE:0889 b9 40           MOV        R1,#0x40
       CODE:088b f0              MOV        A,@R0=>DAT_INTMEM_41                             = ??
       CODE:088c f7              RLC        A
       CODE:088d e6 96           JNC        LAB_CODE_0896
       CODE:088f b0 80           MOV        @R0=>DAT_INTMEM_41,#0x80                         = ??
       CODE:0891 b8 4e           MOV        R0,#0x4e
       CODE:0893 27              CLR        A
       CODE:0894 a1              MOV        @R1=>DAT_INTMEM_40,A                             = ??
       CODE:0895 a0              MOV        @R0=>DAT_INTMEM_4e,A                             = ??
                             LAB_CODE_0896                                   XREF[1]:     CODE:088d(j)  
       CODE:0896 b8 22           MOV        R0,#0x22
       CODE:0898 f0              MOV        A,@R0=>AC?                                       = ??
       CODE:0899 37              CPL        A
       CODE:089a 52 bc           JB0x2      LAB_CODE_08bc
       CODE:089c b8 4e           MOV        R0,#0x4e
       CODE:089e f0              MOV        A,@R0=>DAT_INTMEM_4e                             = ??
       CODE:089f 03 01           ADD        A,#0x1
       CODE:08a1 96 a7           JNZ        LAB_CODE_08a7
       CODE:08a3 b8 46           MOV        R0,#0x46
       CODE:08a5 b0 00           MOV        @R0=>DAT_INTMEM_46,#0x0                          = ??
                             LAB_CODE_08a7                                   XREF[1]:     CODE:08a1(j)  
       CODE:08a7 b8 4e           MOV        R0,#0x4e
       CODE:08a9 f0              MOV        A,@R0=>DAT_INTMEM_4e                             = ??
       CODE:08aa c6 b0           JZ         LAB_CODE_08b0
       CODE:08ac 07              DEC        A
       CODE:08ad a0              MOV        @R0=>DAT_INTMEM_4e,A                             = ??
       CODE:08ae 04 c0           JMP        LAB_CODE_08c0
                             LAB_CODE_08b0                                   XREF[1]:     CODE:08aa(j)  
       CODE:08b0 0a              IN         A,P2=>P2                                         = ??
       CODE:08b1 f7              RLC        A
       CODE:08b2 b1 00           MOV        @R1=>DAT_INTMEM_40,#0x0                          = ??
       CODE:08b4 23 2a           MOV        A,#0x2a
       CODE:08b6 f6 c1           JC         LAB_CODE_08c1
       CODE:08b8 23 2a           MOV        A,#0x2a
       CODE:08ba 04 c1           JMP        LAB_CODE_08c1
                             LAB_CODE_08bc                                   XREF[1]:     CODE:089a(j)  
       CODE:08bc b8 4e           MOV        R0,#0x4e
       CODE:08be b0 ff           MOV        @R0=>DAT_INTMEM_4e,#0xff                         = ??
                             LAB_CODE_08c0                                   XREF[1]:     CODE:08ae(j)  
       CODE:08c0 f1              MOV        A,@R1=>DAT_INTMEM_40                             = ??
                             LAB_CODE_08c1                                   XREF[2]:     CODE:08b6(j), CODE:08ba(j)  
       CODE:08c1 ab              MOV        R3,A
       CODE:08c2 ba ff           MOV        R2,#0xff
       CODE:08c4 f2 c7           JB0x7      LAB_CODE_08c7
       CODE:08c6 1a              INC        R2
                             LAB_CODE_08c7                                   XREF[1]:     CODE:08c4(j)  
       CODE:08c7 e5              SEL        MB0
       CODE:08c8 b4 c7           CALL       FUN_CODE_05c7                                    undefined FUN_CODE_05c7()
       CODE:08ca f5              SEL        MB1
       CODE:08cb 83              RET
                             LAB_CODE_08cc                                   XREF[1]:     CODE:08fc(j)  
       CODE:08cc 24 d7           JMP        LAB_CODE_09d7
                             **************************************************************
                             *                          FUNCTION                          *
                             **************************************************************
                             undefined idleValve(void)
                               assume membank = 0x1
             undefined         A:1            <RETURN>
                             idleValve                                       XREF[1]:     RESET:01f5(c)  
       CODE:08ce b8 c4           MOV        R0,#0xc4
       CODE:08d0 b4 77           CALL       FUN_CODE_0d77                                    undefined FUN_CODE_0d77()
       CODE:08d2 b8 57           MOV        R0,#0x57
       CODE:08d4 60              ADD        A,@R0=>DAT_INTMEM_57                             = ??
       CODE:08d5 b8 50           MOV        R0,#0x50
       CODE:08d7 a0              MOV        @R0=>DAT_INTMEM_50,A                             = ??
       CODE:08d8 b8 33           MOV        R0,#0x33
       CODE:08da b9 23           MOV        R1,#0x23
       CODE:08dc f1              MOV        A,@R1=>DAT_INTMEM_23                             = ??
       CODE:08dd 03 54           ADD        A,#0x54
       CODE:08df f0              MOV        A,@R0=>DAT_INTMEM_33                             = ??
       CODE:08e0 f6 e5           JC         LAB_CODE_08e5
       CODE:08e2 53 cf           ANL        A,#0xcf
       CODE:08e4 a0              MOV        @R0=>DAT_INTMEM_33,A                             = ??
                             LAB_CODE_08e5                                   XREF[1]:     CODE:08e0(j)  
       CODE:08e5 d2 e9           JB0x6      LAB_CODE_08e9
       CODE:08e7 24 3e           JMP        LAB_CODE_093e
                             LAB_CODE_08e9                                   XREF[1]:     CODE:08e5(j)  
       CODE:08e9 f1              MOV        A,@R1=>DAT_INTMEM_23                             = ??
       CODE:08ea 03 70           ADD        A,#0x70
       CODE:08ec f6 f0           JC         LAB_CODE_08f0
       CODE:08ee 24 2b           JMP        LAB_CODE_092b
                             LAB_CODE_08f0                                   XREF[1]:     CODE:08ec(j)  
       CODE:08f0 f0              MOV        A,@R0=>DAT_INTMEM_33                             = ??
       CODE:08f1 85              CLR        F0
       CODE:08f2 95              CPL        F0
       CODE:08f3 92 f6           JB0x4      LAB_CODE_08f6
       CODE:08f5 85              CLR        F0
                             LAB_CODE_08f6                                   XREF[1]:     CODE:08f3(j)  
       CODE:08f6 b9 52           MOV        R1,#0x52
       CODE:08f8 f1              MOV        A,@R1=>DAT_INTMEM_52                             = ??
       CODE:08f9 97              CLR        C
       CODE:08fa f7              RLC        A
       CODE:08fb ac              MOV        R4,A
       CODE:08fc b6 cc           JF0        LAB_CODE_08cc
       CODE:08fe f6 ee           JC         LAB_CODE_09ee
       CODE:0900 03 ef           ADD        A,#0xef
       CODE:0902 e6 2b           JNC        LAB_CODE_092b
       CODE:0904 f0              MOV        A,@R0=>DAT_INTMEM_33                             = ??
       CODE:0905 43 30           ORL        A,#0x30
       CODE:0907 a0              MOV        @R0=>DAT_INTMEM_33,A                             = ??
       CODE:0908 bf 07           MOV        R7,#0x7
       CODE:090a 74 ca           CALL       FUN_CODE_0bca                                    undefined FUN_CODE_0bca()
       CODE:090c b4 61           CALL       FUN_CODE_0d61                                    undefined FUN_CODE_0d61()
       CODE:090e 89 40           ORL        P1,#0x40
       CODE:0910 b9 23           MOV        R1,#0x23
       CODE:0912 bc 57           MOV        R4,#0x57
       CODE:0914 bf 06           MOV        R7,#0x6
       CODE:0916 74 be           CALL       FUN_CODE_0bbe                                    undefined FUN_CODE_0bbe()
       CODE:0918 6e              ADD        A,R6
       CODE:0919 ae              MOV        R6,A
       CODE:091a b8 22           MOV        R0,#0x22
       CODE:091c f0              MOV        A,@R0=>AC?                                       = ??
       CODE:091d 37              CPL        A
       CODE:091e d2 24           JB0x6      LAB_CODE_0924
       CODE:0920 23 0a           MOV        A,#0xa
       CODE:0922 6e              ADD        A,R6
       CODE:0923 ae              MOV        R6,A
                             LAB_CODE_0924                                   XREF[1]:     CODE:091e(j)  
       CODE:0924 99 bf           ANL        P1,#0xbf
       CODE:0926 fe              MOV        A,R6
       CODE:0927 bb ff           MOV        R3,#0xff
       CODE:0929 44 0c           JMP        LAB_CODE_0a0c
                             LAB_CODE_092b                                   XREF[2]:     CODE:08ee(j), CODE:0902(j)  
       CODE:092b f0              MOV        A,@R0=>DAT_INTMEM_33                             = ??
       CODE:092c 53 cf           ANL        A,#0xcf
       CODE:092e a0              MOV        @R0=>DAT_INTMEM_33,A                             = ??
       CODE:092f b9 53           MOV        R1,#0x53
       CODE:0931 b1 10           MOV        @R1=>DAT_INTMEM_53,#0x10                         = ??
       CODE:0933 b8 22           MOV        R0,#0x22
       CODE:0935 b9 56           MOV        R1,#0x56
       CODE:0937 f0              MOV        A,@R0=>AC?                                       = ??
       CODE:0938 53 50           ANL        A,#0x50
       CODE:093a 37              CPL        A
       CODE:093b a1              MOV        @R1=>DAT_INTMEM_56,A                             = ??
       CODE:093c 64 58           JMP        LAB_CODE_0b58
                             LAB_CODE_093e                                   XREF[1]:     CODE:08e7(j)  
       CODE:093e 85              CLR        F0
       CODE:093f 95              CPL        F0
       CODE:0940 f0              MOV        A,@R0=>DAT_INTMEM_33                             = ??
       CODE:0941 b2 4d           JB0x5      LAB_CODE_094d
       CODE:0943 85              CLR        F0
       CODE:0944 b8 51           MOV        R0,#0x51
       CODE:0946 f0              MOV        A,@R0=>DAT_INTMEM_51                             = ??
       CODE:0947 03 e0           ADD        A,#0xe0
       CODE:0949 e6 4d           JNC        LAB_CODE_094d
       CODE:094b 44 23           JMP        LAB_CODE_0a23
                             LAB_CODE_094d                                   XREF[2]:     CODE:0941(j), CODE:0949(j)  
       CODE:094d 89 40           ORL        P1,#0x40
       CODE:094f b9 50           MOV        R1,#0x50
       CODE:0951 f1              MOV        A,@R1=>DAT_INTMEM_50                             = ??
       CODE:0952 03 e8           ADD        A,#0xe8
       CODE:0954 e6 58           JNC        LAB_CODE_0958
       CODE:0956 96 5a           JNZ        LAB_CODE_095a
                             LAB_CODE_0958                                   XREF[1]:     CODE:0954(j)  
       CODE:0958 23 01           MOV        A,#0x1
                             LAB_CODE_095a                                   XREF[1]:     CODE:0956(j)  
       CODE:095a 37              CPL        A
       CODE:095b 17              INC        A
       CODE:095c ac              MOV        R4,A
       CODE:095d 19              INC        R1
       CODE:095e b8 5d           MOV        R0,#0x5d
       CODE:0960 61              ADD        A,@R1=>DAT_INTMEM_51                             = ??
       CODE:0961 f6 67           JC         LAB_CODE_0967
       CODE:0963 b0 00           MOV        @R0=>DAT_INTMEM_5d,#0x0                          = ??
       CODE:0965 24 71           JMP        LAB_CODE_0971
                             LAB_CODE_0967                                   XREF[1]:     CODE:0961(j)  
       CODE:0967 f0              MOV        A,@R0=>DAT_INTMEM_5d                             = ??
       CODE:0968 96 6d           JNZ        LAB_CODE_096d
       CODE:096a 10              INC        @R0=>DAT_INTMEM_5d                               = ??
       CODE:096b 24 71           JMP        LAB_CODE_0971
                             LAB_CODE_096d                                   XREF[1]:     CODE:0968(j)  
       CODE:096d b8 33           MOV        R0,#0x33
       CODE:096f b0 00           MOV        @R0=>DAT_INTMEM_33,#0x0                          = ??
                             LAB_CODE_0971                                   XREF[2]:     CODE:0965(j), CODE:096b(j)  
       CODE:0971 bf 03           MOV        R7,#0x3
       CODE:0973 74 be           CALL       FUN_CODE_0bbe                                    undefined FUN_CODE_0bbe()
       CODE:0975 ae              MOV        R6,A
       CODE:0976 b8 a7           MOV        R0,#0xa7
       CODE:0978 b4 77           CALL       FUN_CODE_0d77                                    undefined FUN_CODE_0d77()
       CODE:097a 6e              ADD        A,R6
       CODE:097b ae              MOV        R6,A
       CODE:097c b9 36           MOV        R1,#0x36
       CODE:097e b8 47           MOV        R0,#0x47
       CODE:0980 f0              MOV        A,@R0=>DAT_INTMEM_47                             = ??
       CODE:0981 03 fe           ADD        A,#0xfe
       CODE:0983 61              ADD        A,@R1=>ECT                                       = ??
       CODE:0984 e6 8f           JNC        LAB_CODE_098f
       CODE:0986 b9 23           MOV        R1,#0x23
       CODE:0988 b8 b4           MOV        R0,#0xb4
       CODE:098a b4 79           CALL       FUN_CODE_0d79                                    undefined FUN_CODE_0d79()
       CODE:098c b8 5a           MOV        R0,#0x5a
       CODE:098e a0              MOV        @R0=>DAT_INTMEM_5a,A                             = ??
                             LAB_CODE_098f                                   XREF[1]:     CODE:0984(j)  
       CODE:098f b8 5a           MOV        R0,#0x5a
       CODE:0991 f0              MOV        A,@R0=>DAT_INTMEM_5a                             = ??
       CODE:0992 03 fc           ADD        A,#0xfc
       CODE:0994 f6 97           JC         LAB_CODE_0997
       CODE:0996 27              CLR        A
                             LAB_CODE_0997                                   XREF[1]:     CODE:0994(j)  
       CODE:0997 a0              MOV        @R0=>DAT_INTMEM_5a,A                             = ??
       CODE:0998 6e              ADD        A,R6
       CODE:0999 e6 9d           JNC        LAB_CODE_099d
       CODE:099b 23 ff           MOV        A,#0xff
                             LAB_CODE_099d                                   XREF[1]:     CODE:0999(j)  
       CODE:099d ae              MOV        R6,A
       CODE:099e b9 52           MOV        R1,#0x52
       CODE:09a0 f1              MOV        A,@R1=>DAT_INTMEM_52                             = ??
       CODE:09a1 97              CLR        C
       CODE:09a2 f7              RLC        A
       CODE:09a3 ac              MOV        R4,A
       CODE:09a4 e6 a8           JNC        LAB_CODE_09a8
       CODE:09a6 27              CLR        A
       CODE:09a7 ac              MOV        R4,A
                             LAB_CODE_09a8                                   XREF[1]:     CODE:09a4(j)  
       CODE:09a8 99 bf           ANL        P1,#0xbf
       CODE:09aa b6 b7           JF0        LAB_CODE_09b7
       CODE:09ac fc              MOV        A,R4
       CODE:09ad 03 f4           ADD        A,#0xf4
       CODE:09af e6 b7           JNC        LAB_CODE_09b7
       CODE:09b1 b8 33           MOV        R0,#0x33
       CODE:09b3 f0              MOV        A,@R0=>DAT_INTMEM_33                             = ??
       CODE:09b4 43 20           ORL        A,#0x20
       CODE:09b6 a0              MOV        @R0=>DAT_INTMEM_33,A                             = ??
                             LAB_CODE_09b7                                   XREF[2]:     CODE:09aa(j), CODE:09af(j)  
       CODE:09b7 bf 04           MOV        R7,#0x4
       CODE:09b9 74 ca           CALL       FUN_CODE_0bca                                    undefined FUN_CODE_0bca()
       CODE:09bb 6e              ADD        A,R6
       CODE:09bc e6 c0           JNC        LAB_CODE_09c0
       CODE:09be 23 ff           MOV        A,#0xff
                             LAB_CODE_09c0                                   XREF[1]:     CODE:09bc(j)  
       CODE:09c0 ae              MOV        R6,A
       CODE:09c1 b9 5b           MOV        R1,#0x5b
       CODE:09c3 b8 22           MOV        R0,#0x22
       CODE:09c5 f0              MOV        A,@R0=>AC?                                       = ??
       CODE:09c6 32 da           JB0x1      LAB_CODE_09da
       CODE:09c8 bb ff           MOV        R3,#0xff
       CODE:09ca f1              MOV        A,@R1=>DAT_INTMEM_5b                             = ??
       CODE:09cb 03 02           ADD        A,#0x2
       CODE:09cd f6 d0           JC         LAB_CODE_09d0
       CODE:09cf a1              MOV        @R1=>DAT_INTMEM_5b,A                             = ??
                             LAB_CODE_09d0                                   XREF[1]:     CODE:09cd(j)  
       CODE:09d0 19              INC        R1
       CODE:09d1 f1              MOV        A,@R1=>DAT_INTMEM_5c                             = ??
       CODE:09d2 03 02           ADD        A,#0x2
       CODE:09d4 f6 d7           JC         LAB_CODE_09d7
       CODE:09d6 a1              MOV        @R1=>DAT_INTMEM_5c,A                             = ??
                             LAB_CODE_09d7                                   XREF[2]:     CODE:08cc(j), CODE:09d4(j)  
       CODE:09d7 c9              DEC        R1
                             LAB_CODE_09d8                                   XREF[2]:     CODE:09f2(j), CODE:09f9(j)  
       CODE:09d8 44 02           JMP        LAB_CODE_0a02
                             LAB_CODE_09da                                   XREF[1]:     CODE:09c6(j)  
       CODE:09da b1 d4           MOV        @R1=>DAT_INTMEM_5b,#0xd4                         = ??
       CODE:09dc bb fe           MOV        R3,#0xfe
       CODE:09de b8 23           MOV        R0,#0x23
       CODE:09e0 f0              MOV        A,@R0=>DAT_INTMEM_23                             = ??
       CODE:09e1 03 69           ADD        A,#0x69
       CODE:09e3 b8 5c           MOV        R0,#0x5c
       CODE:09e5 e6 e9           JNC        LAB_CODE_09e9
       CODE:09e7 b0 e0           MOV        @R0=>DAT_INTMEM_5c,#0xe0                         = ??
                             LAB_CODE_09e9                                   XREF[1]:     CODE:09e5(j)  
       CODE:09e9 f0              MOV        A,@R0=>DAT_INTMEM_5c                             = ??
       CODE:09ea 03 02           ADD        A,#0x2
       CODE:09ec f6 ef           JC         LAB_CODE_09ef
                             LAB_CODE_09ee                                   XREF[1]:     CODE:08fe(j)  
       CODE:09ee a0              MOV        @R0=>DAT_INTMEM_5c,A                             = ??
                             LAB_CODE_09ef                                   XREF[1]:     CODE:09ec(j)  
       CODE:09ef fc              MOV        A,R4
       CODE:09f0 03 f2           ADD        A,#0xf2
       CODE:09f2 e6 d8           JNC        LAB_CODE_09d8
       CODE:09f4 b8 36           MOV        R0,#0x36
       CODE:09f6 f0              MOV        A,@R0=>ECT                                       = ??
       CODE:09f7 03 e0           ADD        A,#0xe0
       CODE:09f9 e6 d8           JNC        LAB_CODE_09d8
       CODE:09fb b8 53           MOV        R0,#0x53
       CODE:09fd f0              MOV        A,@R0=>DAT_INTMEM_53                             = ??
       CODE:09fe 6c              ADD        A,R4
       CODE:09ff f6 02           JC         LAB_CODE_0a02
       CODE:0a01 a0              MOV        @R0=>DAT_INTMEM_53,A                             = ??
                             LAB_CODE_0a02                                   XREF[2]:     CODE:09d8(j), CODE:09ff(j)  
       CODE:0a02 fe              MOV        A,R6
       CODE:0a03 61              ADD        A,@R1=>DAT_INTMEM_5b                             = ??
       CODE:0a04 f6 07           JC         LAB_CODE_0a07
       CODE:0a06 27              CLR        A
                             LAB_CODE_0a07                                   XREF[1]:     CODE:0a04(j)  
       CODE:0a07 19              INC        R1
       CODE:0a08 61              ADD        A,@R1=>DAT_INTMEM_5c                             = ??
       CODE:0a09 f6 0c           JC         LAB_CODE_0a0c
       CODE:0a0b 27              CLR        A
                             LAB_CODE_0a0c                                   XREF[2]:     CODE:0929(j), CODE:0a09(j)  
       CODE:0a0c b9 53           MOV        R1,#0x53
       CODE:0a0e 21              XCH        A,@R1=>DAT_INTMEM_53                             = ??
       CODE:0a0f af              MOV        R7,A
       CODE:0a10 b4 3b           CALL       FUN_CODE_0d3b                                    undefined FUN_CODE_0d3b()
       CODE:0a12 ff              MOV        A,R7
       CODE:0a13 96 17           JNZ        LAB_CODE_0a17
                             LAB_CODE_0a15                                   XREF[1]:     CODE:0a1a(j)  
       CODE:0a15 44 21           JMP        LAB_CODE_0a21
                             LAB_CODE_0a17                                   XREF[1]:     CODE:0a13(j)  
       CODE:0a17 37              CPL        A
       CODE:0a18 17              INC        A
       CODE:0a19 61              ADD        A,@R1=>DAT_INTMEM_53                             = ??
       CODE:0a1a f6 15           JC         LAB_CODE_0a15
       CODE:0a1c ff              MOV        A,R7
       CODE:0a1d 6b              ADD        A,R3
       CODE:0a1e e6 21           JNC        LAB_CODE_0a21
       CODE:0a20 a1              MOV        @R1=>DAT_INTMEM_53,A                             = ??
                             LAB_CODE_0a21                                   XREF[2]:     CODE:0a15(j), CODE:0a1e(j)  
       CODE:0a21 64 58           JMP        LAB_CODE_0b58
                             LAB_CODE_0a23                                   XREF[1]:     CODE:094b(j)  
       CODE:0a23 89 40           ORL        P1,#0x40
       CODE:0a25 b8 5b           MOV        R0,#0x5b
       CODE:0a27 b0 ff           MOV        @R0=>DAT_INTMEM_5b,#0xff                         = ??
       CODE:0a29 18              INC        R0
       CODE:0a2a b0 ff           MOV        @R0=>DAT_INTMEM_5c,#0xff                         = ??
       CODE:0a2c b8 22           MOV        R0,#0x22
       CODE:0a2e b9 56           MOV        R1,#0x56
       CODE:0a30 f0              MOV        A,@R0=>AC?                                       = ??
       CODE:0a31 53 50           ANL        A,#0x50
       CODE:0a33 37              CPL        A
       CODE:0a34 d1              XRL        A,@R1=>DAT_INTMEM_56                             = ??
       CODE:0a35 c6 52           JZ         LAB_CODE_0a52
       CODE:0a37 b8 53           MOV        R0,#0x53
       CODE:0a39 f0              MOV        A,@R0=>DAT_INTMEM_53                             = ??
       CODE:0a3a c6 52           JZ         LAB_CODE_0a52
       CODE:0a3c f1              MOV        A,@R1=>DAT_INTMEM_56                             = ??
       CODE:0a3d ab              MOV        R3,A
       CODE:0a3e d2 46           JB0x6      LAB_CODE_0a46
       CODE:0a40 23 d0           MOV        A,#0xd0
       CODE:0a42 60              ADD        A,@R0=>DAT_INTMEM_53                             = ??
       CODE:0a43 e6 4e           JNC        LAB_CODE_0a4e
       CODE:0a45 a0              MOV        @R0=>DAT_INTMEM_53,A                             = ??
                             LAB_CODE_0a46                                   XREF[1]:     CODE:0a3e(j)  
       CODE:0a46 fb              MOV        A,R3
       CODE:0a47 92 50           JB0x4      LAB_CODE_0a50
       CODE:0a49 23 f8           MOV        A,#0xf8
       CODE:0a4b 60              ADD        A,@R0=>DAT_INTMEM_53                             = ??
       CODE:0a4c f6 4f           JC         LAB_CODE_0a4f
                             LAB_CODE_0a4e                                   XREF[1]:     CODE:0a43(j)  
       CODE:0a4e 27              CLR        A
                             LAB_CODE_0a4f                                   XREF[1]:     CODE:0a4c(j)  
       CODE:0a4f a0              MOV        @R0=>DAT_INTMEM_53,A                             = ??
                             LAB_CODE_0a50                                   XREF[1]:     CODE:0a47(j)  
       CODE:0a50 b4 3b           CALL       FUN_CODE_0d3b                                    undefined FUN_CODE_0d3b()
                             LAB_CODE_0a52                                   XREF[2]:     CODE:0a35(j), CODE:0a3a(j)  
       CODE:0a52 99 bf           ANL        P1,#0xbf
       CODE:0a54 b9 51           MOV        R1,#0x51
       CODE:0a56 f1              MOV        A,@R1=>DAT_INTMEM_51                             = ??
       CODE:0a57 03 60           ADD        A,#0x60
       CODE:0a59 b8 22           MOV        R0,#0x22
       CODE:0a5b f0              MOV        A,@R0=>AC?                                       = ??
       CODE:0a5c f6 62           JC         LAB_CODE_0a62
       CODE:0a5e 32 62           JB0x1      LAB_CODE_0a62
                             LAB_CODE_0a60                                   XREF[2]:     CODE:0a63(j), CODE:0a85(j)  
       CODE:0a60 64 58           JMP        LAB_CODE_0b58
                             LAB_CODE_0a62                                   XREF[2]:     CODE:0a5c(j), CODE:0a5e(j)  
       CODE:0a62 37              CPL        A
       CODE:0a63 f2 60           JB0x7      LAB_CODE_0a60
       CODE:0a65 b8 59           MOV        R0,#0x59
       CODE:0a67 f0              MOV        A,@R0=>DAT_INTMEM_59                             = ??
       CODE:0a68 c6 6c           JZ         LAB_CODE_0a6c
       CODE:0a6a 07              DEC        A
       CODE:0a6b a0              MOV        @R0=>DAT_INTMEM_59,A                             = ??
                             LAB_CODE_0a6c                                   XREF[1]:     CODE:0a68(j)  
       CODE:0a6c f1              MOV        A,@R1=>DAT_INTMEM_51                             = ??
       CODE:0a6d c9              DEC        R1
       CODE:0a6e 96 75           JNZ        LAB_CODE_0a75
       CODE:0a70 f1              MOV        A,@R1=>DAT_INTMEM_50                             = ??
       CODE:0a71 97              CLR        C
       CODE:0a72 a7              CPL        C
       CODE:0a73 44 78           JMP        LAB_CODE_0a78
                             LAB_CODE_0a75                                   XREF[1]:     CODE:0a6e(j)  
       CODE:0a75 37              CPL        A
       CODE:0a76 17              INC        A
       CODE:0a77 61              ADD        A,@R1=>DAT_INTMEM_50                             = ??
                             LAB_CODE_0a78                                   XREF[1]:     CODE:0a73(j)  
       CODE:0a78 f2 7f           JB0x7      LAB_CODE_0a7f
       CODE:0a7a f6 83           JC         LAB_CODE_0a83
       CODE:0a7c 23 80           MOV        A,#0x80
       CODE:0a7e 97              CLR        C
                             LAB_CODE_0a7f                                   XREF[1]:     CODE:0a78(j)  
       CODE:0a7f e6 83           JNC        LAB_CODE_0a83
       CODE:0a81 23 7f           MOV        A,#0x7f
                             LAB_CODE_0a83                                   XREF[2]:     CODE:0a7a(j), CODE:0a7f(j)  
       CODE:0a83 b8 59           MOV        R0,#0x59
       CODE:0a85 c6 60           JZ         LAB_CODE_0a60
       CODE:0a87 89 40           ORL        P1,#0x40
       CODE:0a89 f2 da           JB0x7      LAB_CODE_0ada
       CODE:0a8b ac              MOV        R4,A
       CODE:0a8c ad              MOV        R5,A
       CODE:0a8d b9 52           MOV        R1,#0x52
       CODE:0a8f f1              MOV        A,@R1=>DAT_INTMEM_52                             = ??
       CODE:0a90 f2 96           JB0x7      LAB_CODE_0a96
       CODE:0a92 03 fe           ADD        A,#0xfe
       CODE:0a94 f6 d4           JC         LAB_CODE_0ad4
                             LAB_CODE_0a96                                   XREF[1]:     CODE:0a90(j)  
       CODE:0a96 f0              MOV        A,@R0=>DAT_INTMEM_59                             = ??
       CODE:0a97 96 af           JNZ        LAB_CODE_0aaf
       CODE:0a99 fc              MOV        A,R4
       CODE:0a9a 03 d0           ADD        A,#0xd0
       CODE:0a9c e6 af           JNC        LAB_CODE_0aaf
       CODE:0a9e b0 04           MOV        @R0=>DAT_INTMEM_59,#0x4                          = ??
       CODE:0aa0 bf 03           MOV        R7,#0x3
       CODE:0aa2 74 ca           CALL       FUN_CODE_0bca                                    undefined FUN_CODE_0bca()
       CODE:0aa4 c6 af           JZ         LAB_CODE_0aaf
       CODE:0aa6 37              CPL        A
       CODE:0aa7 17              INC        A
       CODE:0aa8 b8 53           MOV        R0,#0x53
       CODE:0aaa 60              ADD        A,@R0=>DAT_INTMEM_53                             = ??
       CODE:0aab f6 ae           JC         LAB_CODE_0aae
       CODE:0aad 27              CLR        A
                             LAB_CODE_0aae                                   XREF[1]:     CODE:0aab(j)  
       CODE:0aae a0              MOV        @R0=>DAT_INTMEM_53,A                             = ??
                             LAB_CODE_0aaf                                   XREF[3]:     CODE:0a97(j), CODE:0a9c(j), 
                                                                                          CODE:0aa4(j)  
       CODE:0aaf b9 55           MOV        R1,#0x55
       CODE:0ab1 b8 54           MOV        R0,#0x54
       CODE:0ab3 f1              MOV        A,@R1=>DAT_INTMEM_55                             = ??
       CODE:0ab4 b9 53           MOV        R1,#0x53
       CODE:0ab6 96 ba           JNZ        LAB_CODE_0aba
       CODE:0ab8 b0 04           MOV        @R0=>DAT_INTMEM_54,#0x4                          = ??
                             LAB_CODE_0aba                                   XREF[1]:     CODE:0ab6(j)  
       CODE:0aba f0              MOV        A,@R0=>DAT_INTMEM_54                             = ??
       CODE:0abb 07              DEC        A
       CODE:0abc a0              MOV        @R0=>DAT_INTMEM_54,A                             = ??
       CODE:0abd 96 d4           JNZ        LAB_CODE_0ad4
       CODE:0abf fd              MOV        A,R5
       CODE:0ac0 03 e0           ADD        A,#0xe0
       CODE:0ac2 f1              MOV        A,@R1=>DAT_INTMEM_53                             = ??
       CODE:0ac3 f6 cc           JC         LAB_CODE_0acc
       CODE:0ac5 b0 0c           MOV        @R0=>DAT_INTMEM_54,#0xc                          = ??
       CODE:0ac7 c6 d4           JZ         LAB_CODE_0ad4
       CODE:0ac9 07              DEC        A
       CODE:0aca 44 d3           JMP        LAB_CODE_0ad3
                             LAB_CODE_0acc                                   XREF[1]:     CODE:0ac3(j)  
       CODE:0acc b0 04           MOV        @R0=>DAT_INTMEM_54,#0x4                          = ??
       CODE:0ace 03 f6           ADD        A,#0xf6
       CODE:0ad0 f6 d3           JC         LAB_CODE_0ad3
       CODE:0ad2 27              CLR        A
                             LAB_CODE_0ad3                                   XREF[2]:     CODE:0aca(j), CODE:0ad0(j)  
       CODE:0ad3 a1              MOV        @R1=>DAT_INTMEM_53,A                             = ??
                             LAB_CODE_0ad4                                   XREF[3]:     CODE:0a94(j), CODE:0abd(j), 
                                                                                          CODE:0ac7(j)  
       CODE:0ad4 23 ff           MOV        A,#0xff
       CODE:0ad6 64 3d           JMP        LAB_CODE_0b3d
                             LAB_CODE_0ad8                                   XREF[1]:     CODE:0aee(j)  
       CODE:0ad8 64 16           JMP        LAB_CODE_0b16
                             LAB_CODE_0ada                                   XREF[1]:     CODE:0a89(j)  
       CODE:0ada 37              CPL        A
       CODE:0adb 17              INC        A
       CODE:0adc ac              MOV        R4,A
       CODE:0add ad              MOV        R5,A
       CODE:0ade bf 0a           MOV        R7,#0xa
       CODE:0ae0 be 05           MOV        R6,#0x5
       CODE:0ae2 b9 36           MOV        R1,#0x36
       CODE:0ae4 f1              MOV        A,@R1=>ECT                                       = ??
       CODE:0ae5 03 e0           ADD        A,#0xe0
       CODE:0ae7 e6 ed           JNC        LAB_CODE_0aed
       CODE:0ae9 bf 04           MOV        R7,#0x4
       CODE:0aeb be 03           MOV        R6,#0x3
                             LAB_CODE_0aed                                   XREF[1]:     CODE:0ae7(j)  
       CODE:0aed f0              MOV        A,@R0=>DAT_INTMEM_59                             = ??
       CODE:0aee 96 d8           JNZ        LAB_CODE_0ad8
       CODE:0af0 b9 24           MOV        R1,#0x24
       CODE:0af2 f1              MOV        A,@R1=>DAT_INTMEM_24                             = ??
       CODE:0af3 03 28           ADD        A,#0x28
       CODE:0af5 f6 f9           JC         LAB_CODE_0af9
       CODE:0af7 64 05           JMP        LAB_CODE_0b05
                             LAB_CODE_0af9                                   XREF[1]:     CODE:0af5(j)  
       CODE:0af9 b9 53           MOV        R1,#0x53
       CODE:0afb f1              MOV        A,@R1=>DAT_INTMEM_53                             = ??
       CODE:0afc 03 28           ADD        A,#0x28
       CODE:0afe a1              MOV        @R1=>DAT_INTMEM_53,A                             = ??
       CODE:0aff e6 03           JNC        LAB_CODE_0b03
       CODE:0b01 b1 ff           MOV        @R1=>DAT_INTMEM_53,#0xff                         = ??
                             LAB_CODE_0b03                                   XREF[1]:     CODE:0aff(j)  
       CODE:0b03 b0 04           MOV        @R0=>DAT_INTMEM_59,#0x4                          = ??
                             LAB_CODE_0b05                                   XREF[1]:     CODE:0af7(j)  
       CODE:0b05 fc              MOV        A,R4
       CODE:0b06 03 e8           ADD        A,#0xe8
       CODE:0b08 e6 16           JNC        LAB_CODE_0b16
       CODE:0b0a b0 04           MOV        @R0=>DAT_INTMEM_59,#0x4                          = ??
       CODE:0b0c 74 ca           CALL       FUN_CODE_0bca                                    undefined FUN_CODE_0bca()
       CODE:0b0e b8 53           MOV        R0,#0x53
       CODE:0b10 60              ADD        A,@R0=>DAT_INTMEM_53                             = ??
       CODE:0b11 e6 15           JNC        LAB_CODE_0b15
       CODE:0b13 23 ff           MOV        A,#0xff
                             LAB_CODE_0b15                                   XREF[1]:     CODE:0b11(j)  
       CODE:0b15 a0              MOV        @R0=>DAT_INTMEM_53,A                             = ??
                             LAB_CODE_0b16                                   XREF[2]:     CODE:0ad8(j), CODE:0b08(j)  
       CODE:0b16 b9 55           MOV        R1,#0x55
       CODE:0b18 b8 54           MOV        R0,#0x54
       CODE:0b1a f1              MOV        A,@R1=>DAT_INTMEM_55                             = ??
       CODE:0b1b c6 1f           JZ         LAB_CODE_0b1f
       CODE:0b1d b0 01           MOV        @R0=>DAT_INTMEM_54,#0x1                          = ??
                             LAB_CODE_0b1f                                   XREF[1]:     CODE:0b1b(j)  
       CODE:0b1f f0              MOV        A,@R0=>DAT_INTMEM_54                             = ??
       CODE:0b20 07              DEC        A
       CODE:0b21 a0              MOV        @R0=>DAT_INTMEM_54,A                             = ??
       CODE:0b22 96 3c           JNZ        LAB_CODE_0b3c
       CODE:0b24 fd              MOV        A,R5
       CODE:0b25 03 e0           ADD        A,#0xe0
       CODE:0b27 b9 53           MOV        R1,#0x53
       CODE:0b29 f1              MOV        A,@R1=>DAT_INTMEM_53                             = ??
       CODE:0b2a f6 34           JC         LAB_CODE_0b34
       CODE:0b2c b0 0b           MOV        @R0=>DAT_INTMEM_54,#0xb                          = ??
       CODE:0b2e 17              INC        A
       CODE:0b2f c6 3c           JZ         LAB_CODE_0b3c
       CODE:0b31 a1              MOV        @R1=>DAT_INTMEM_53,A                             = ??
       CODE:0b32 64 3c           JMP        LAB_CODE_0b3c
                             LAB_CODE_0b34                                   XREF[1]:     CODE:0b2a(j)  
       CODE:0b34 b0 04           MOV        @R0=>DAT_INTMEM_54,#0x4                          = ??
       CODE:0b36 6e              ADD        A,R6
       CODE:0b37 e6 3b           JNC        LAB_CODE_0b3b
       CODE:0b39 23 ff           MOV        A,#0xff
                             LAB_CODE_0b3b                                   XREF[1]:     CODE:0b37(j)  
       CODE:0b3b a1              MOV        @R1=>DAT_INTMEM_53,A                             = ??
                             LAB_CODE_0b3c                                   XREF[3]:     CODE:0b22(j), CODE:0b2f(j), 
                                                                                          CODE:0b32(j)  
       CODE:0b3c 27              CLR        A
                             LAB_CODE_0b3d                                   XREF[1]:     CODE:0ad6(j)  
       CODE:0b3d b9 55           MOV        R1,#0x55
       CODE:0b3f a1              MOV        @R1=>DAT_INTMEM_55,A                             = ??
       CODE:0b40 99 bf           ANL        P1,#0xbf
       CODE:0b42 64 58           JMP        LAB_CODE_0b58
                             **************************************************************
                             *                          FUNCTION                          *
                             **************************************************************
                             undefined FUN_CODE_0b44()
                               assume membank = 0x1
             undefined         A:1            <RETURN>
                             FUN_CODE_0b44                                   XREF[1]:     RESET:0166(c)  
       CODE:0b44 b8 37           MOV        R0,#0x37
       CODE:0b46 f0              MOV        A,@R0=>IAT                                       = ??
       CODE:0b47 c8              DEC        R0
       CODE:0b48 60              ADD        A,@R0=>ECT                                       = ??
       CODE:0b49 e6 51           JNC        FUN_CODE_0b51
       CODE:0b4b 03 10           ADD        A,#0x10
       CODE:0b4d e6 51           JNC        FUN_CODE_0b51
       CODE:0b4f 64 e4           JMP        LAB_CODE_0be4
                             **************************************************************
                             *                          FUNCTION                          *
                             **************************************************************
                             undefined FUN_CODE_0b51()
                               assume membank = 0x1
             undefined         A:1            <RETURN>
                             FUN_CODE_0b51                                   XREF[3]:     RESET:017b(c), 
                                                                                          FUN_CODE_0b44:0b49(j), 
                                                                                          FUN_CODE_0b44:0b4d(j)  
       CODE:0b51 b8 96           MOV        R0,#0x96
       CODE:0b53 b4 77           CALL       FUN_CODE_0d77                                    undefined FUN_CODE_0d77()
       CODE:0b55 b8 53           MOV        R0,#0x53
       CODE:0b57 a0              MOV        @R0=>DAT_INTMEM_53,A                             = ??
                             LAB_CODE_0b58                                   XREF[4]:     CODE:093c(j), CODE:0a21(j), 
                                                                                          CODE:0a60(j), CODE:0b42(j)  
       CODE:0b58 b8 5e           MOV        R0,#0x5e
       CODE:0b5a f0              MOV        A,@R0=>DAT_INTMEM_5e                             = ??
       CODE:0b5b c6 89           JZ         LAB_CODE_0b89
       CODE:0b5d b9 37           MOV        R1,#0x37
       CODE:0b5f f1              MOV        A,@R1=>IAT                                       = ??
       CODE:0b60 03 d0           ADD        A,#0xd0
       CODE:0b62 f6 85           JC         LAB_CODE_0b85
       CODE:0b64 b9 22           MOV        R1,#0x22
       CODE:0b66 f1              MOV        A,@R1=>AC?                                       = ??
       CODE:0b67 ba 60           MOV        R2,#0x60
       CODE:0b69 d2 6d           JB0x6      LAB_CODE_0b6d
       CODE:0b6b ba 30           MOV        R2,#0x30
                             LAB_CODE_0b6d                                   XREF[1]:     CODE:0b69(j)  
       CODE:0b6d 18              INC        R0
       CODE:0b6e f0              MOV        A,@R0=>DAT_INTMEM_5f                             = ??
       CODE:0b6f c6 78           JZ         LAB_CODE_0b78
       CODE:0b71 07              DEC        A
       CODE:0b72 a0              MOV        @R0=>DAT_INTMEM_5f,A                             = ??
       CODE:0b73 18              INC        R0
       CODE:0b74 f0              MOV        A,@R0=>DAT_INTMEM_60                             = ??
       CODE:0b75 07              DEC        A
       CODE:0b76 64 7e           JMP        LAB_CODE_0b7e
                             LAB_CODE_0b78                                   XREF[1]:     CODE:0b6f(j)  
       CODE:0b78 b0 30           MOV        @R0=>DAT_INTMEM_5f,#0x30                         = ??
       CODE:0b7a 18              INC        R0
       CODE:0b7b f0              MOV        A,@R0=>DAT_INTMEM_60                             = ??
       CODE:0b7c 07              DEC        A
       CODE:0b7d a0              MOV        @R0=>DAT_INTMEM_60,A                             = ??
                             LAB_CODE_0b7e                                   XREF[1]:     CODE:0b76(j)  
       CODE:0b7e 6a              ADD        A,R2
       CODE:0b7f f6 8d           JC         LAB_CODE_0b8d
       CODE:0b81 27              CLR        A
       CODE:0b82 10              INC        @R0=>DAT_INTMEM_60                               = ??
       CODE:0b83 64 8d           JMP        LAB_CODE_0b8d
                             LAB_CODE_0b85                                   XREF[1]:     CODE:0b62(j)  
       CODE:0b85 23 0c           MOV        A,#0xc
       CODE:0b87 64 8d           JMP        LAB_CODE_0b8d
                             LAB_CODE_0b89                                   XREF[1]:     CODE:0b5b(j)  
       CODE:0b89 b8 e6           MOV        R0,#0xe6
       CODE:0b8b b4 77           CALL       FUN_CODE_0d77                                    undefined FUN_CODE_0d77()
                             LAB_CODE_0b8d                                   XREF[3]:     CODE:0b7f(j), CODE:0b83(j), 
                                                                                          CODE:0b87(j)  
       CODE:0b8d aa              MOV        R2,A
       CODE:0b8e b9 53           MOV        R1,#0x53
       CODE:0b90 c6 99           JZ         LAB_CODE_0b99
       CODE:0b92 37              CPL        A
       CODE:0b93 17              INC        A
       CODE:0b94 61              ADD        A,@R1=>DAT_INTMEM_53                             = ??
       CODE:0b95 f6 99           JC         LAB_CODE_0b99
       CODE:0b97 fa              MOV        A,R2
       CODE:0b98 a1              MOV        @R1=>DAT_INTMEM_53,A                             = ??
                             LAB_CODE_0b99                                   XREF[2]:     CODE:0b90(j), CODE:0b95(j)  
       CODE:0b99 b8 36           MOV        R0,#0x36
       CODE:0b9b f0              MOV        A,@R0=>ECT                                       = ??
       CODE:0b9c 03 10           ADD        A,#0x10
       CODE:0b9e e6 a2           JNC        LAB_CODE_0ba2
       CODE:0ba0 b1 0c           MOV        @R1=>DAT_INTMEM_53,#0xc                          = ??
                             LAB_CODE_0ba2                                   XREF[1]:     CODE:0b9e(j)  
       CODE:0ba2 f1              MOV        A,@R1=>DAT_INTMEM_53                             = ??
                             **************************************************************
                             *                          FUNCTION                          *
                             **************************************************************
                             undefined FUN_CODE_0ba3()
                               assume membank = 0x1
             undefined         A:1            <RETURN>
                             FUN_CODE_0ba3                                   XREF[1]:     FUN_CODE_0b44:0c16(c)  
       CODE:0ba3 be 0c           MOV        R6,#0xc
       CODE:0ba5 99 fd           ANL        P1,#0xfd
       CODE:0ba7 89 40           ORL        P1,#0x40
                             LAB_CODE_0ba9                                   XREF[1]:     CODE:0bb7(j)  
       CODE:0ba9 97              CLR        C
       CODE:0baa f7              RLC        A
       CODE:0bab 89 04           ORL        P1,#0x4
       CODE:0bad f6 b3           JC         LAB_CODE_0bb3
       CODE:0baf 99 7f           ANL        P1,#0x7f
       CODE:0bb1 64 b5           JMP        LAB_CODE_0bb5
                             LAB_CODE_0bb3                                   XREF[1]:     CODE:0bad(j)  
       CODE:0bb3 89 80           ORL        P1,#0x80
                             LAB_CODE_0bb5                                   XREF[1]:     CODE:0bb1(j)  
       CODE:0bb5 99 fb           ANL        P1,#0xfb
       CODE:0bb7 ee a9           DJNZ       R6,LAB_CODE_0ba9
       CODE:0bb9 89 02           ORL        P1,#0x2
       CODE:0bbb 99 bf           ANL        P1,#0xbf
       CODE:0bbd 83              RET
                             **************************************************************
                             *                          FUNCTION                          *
                             **************************************************************
                             undefined FUN_CODE_0bbe()
                               assume membank = 0x1
             undefined         A:1            <RETURN>
                             FUN_CODE_0bbe                                   XREF[2]:     idleValve:0916(c), 
                                                                                          idleValve:0973(c)  
       CODE:0bbe f1              MOV        A,@R1
       CODE:0bbf 6c              ADD        A,R4
       CODE:0bc0 bc 28           MOV        R4,#0x28
       CODE:0bc2 f6 ca           JC         FUN_CODE_0bca
       CODE:0bc4 6c              ADD        A,R4
       CODE:0bc5 f6 c9           JC         LAB_CODE_0bc9
       CODE:0bc7 27              CLR        A
       CODE:0bc8 83              RET
                             LAB_CODE_0bc9                                   XREF[1]:     CODE:0bc5(j)  
       CODE:0bc9 ac              MOV        R4,A
                             **************************************************************
                             *                          FUNCTION                          *
                             **************************************************************
                             undefined FUN_CODE_0bca()
                               assume membank = 0x1
             undefined         A:1            <RETURN>
                             FUN_CODE_0bca                                   XREF[5]:     idleValve:090a(c), 
                                                                                          idleValve:09b9(c), 
                                                                                          idleValve:0aa2(c), 
                                                                                          idleValve:0b0c(c), 
                                                                                          FUN_CODE_0bbe:0bc2(j)  
       CODE:0bca 27              CLR        A
       CODE:0bcb aa              MOV        R2,A
       CODE:0bcc ab              MOV        R3,A
       CODE:0bcd e5              SEL        MB0
                             LAB_CODE_0bce                                   XREF[1]:     CODE:0bd0(j)  
       CODE:0bce b4 ce           CALL       FUN_CODE_05ce                                    undefined FUN_CODE_05ce()
       CODE:0bd0 ef ce           DJNZ       R7,LAB_CODE_0bce
       CODE:0bd2 f5              SEL        MB1
       CODE:0bd3 fb              MOV        A,R3
       CODE:0bd4 47              SWAP       A
       CODE:0bd5 53 0e           ANL        A,#0xe
       CODE:0bd7 ab              MOV        R3,A
       CODE:0bd8 fa              MOV        A,R2
       CODE:0bd9 92 e1           JB0x4      LAB_CODE_0be1
       CODE:0bdb 53 0f           ANL        A,#0xf
       CODE:0bdd 47              SWAP       A
       CODE:0bde 4b              ORL        A,R3
       CODE:0bdf 77              RR         A
       CODE:0be0 83              RET
                             LAB_CODE_0be1                                   XREF[1]:     CODE:0bd9(j)  
       CODE:0be1 23 80           MOV        A,#0x80
       CODE:0be3 83              RET
                             LAB_CODE_0be4                                   XREF[1]:     CODE:0b4f(j)  
       CODE:0be4 15              DIS        I
       CODE:0be5 35              DIS        TCNTI
                             LAB_CODE_0be6                                   XREF[2]:     CODE:0c23(j), CODE:0c27(j)  
       CODE:0be6 89 40           ORL        P1,#0x40
       CODE:0be8 1d              INC        R5
       CODE:0be9 fd              MOV        A,R5
       CODE:0bea 53 0f           ANL        A,#0xf
       CODE:0bec 96 f0           JNZ        LAB_CODE_0bf0
       CODE:0bee 99 ef           ANL        P1,#0xef
                             LAB_CODE_0bf0                                   XREF[1]:     CODE:0bec(j)  
       CODE:0bf0 6c              ADD        A,R4
       CODE:0bf1 e6 f5           JNC        LAB_CODE_0bf5
       CODE:0bf3 89 10           ORL        P1,#0x10
                             LAB_CODE_0bf5                                   XREF[1]:     CODE:0bf1(j)  
       CODE:0bf5 9a f8           ANL        P2,#0xf8
       CODE:0bf7 8a 03           ORL        P2,#0x3
       CODE:0bf9 e5              SEL        MB0
       CODE:0bfa b4 b8           CALL       ReadADC                                          undefined ReadADC(void)
       CODE:0bfc f5              SEL        MB1
       CODE:0bfd bb ff           MOV        R3,#0xff
       CODE:0bff f2 13           JB0x7      LAB_CODE_0c13
       CODE:0c01 d2 12           JB0x6      LAB_CODE_0c12
       CODE:0c03 bb 18           MOV        R3,#0x18
       CODE:0c05 09              IN         A,P1=>P1                                         = ??
       CODE:0c06 72 0a           JB0x3      LAB_CODE_0c0a
       CODE:0c08 bb 0c           MOV        R3,#0xc
                             LAB_CODE_0c0a                                   XREF[1]:     CODE:0c06(j)  
       CODE:0c0a 27              CLR        A
       CODE:0c0b 46 0f           JNT1       LAB_CODE_0c0f
       CODE:0c0d 23 0c           MOV        A,#0xc
                             LAB_CODE_0c0f                                   XREF[1]:     CODE:0c0b(j)  
       CODE:0c0f 6b              ADD        A,R3
       CODE:0c10 84 14           JMP        LAB_CODE_0c14
                             LAB_CODE_0c12                                   XREF[1]:     CODE:0c01(j)  
       CODE:0c12 1b              INC        R3
                             LAB_CODE_0c13                                   XREF[1]:     CODE:0bff(j)  
       CODE:0c13 fb              MOV        A,R3
                             LAB_CODE_0c14                                   XREF[1]:     CODE:0c10(j)  
       CODE:0c14 99 bf           ANL        P1,#0xbf
       CODE:0c16 74 a3           CALL       FUN_CODE_0ba3                                    undefined FUN_CODE_0ba3()
       CODE:0c18 0a              IN         A,P2=>P2                                         = ??
       CODE:0c19 bc fc           MOV        R4,#0xfc
       CODE:0c1b d2 23           JB0x6      LAB_CODE_0c23
       CODE:0c1d 00              NOP
       CODE:0c1e 00              NOP
       CODE:0c1f b2 25           JB0x5      LAB_CODE_0c25
       CODE:0c21 bc f4           MOV        R4,#0xf4
                             LAB_CODE_0c23                                   XREF[1]:     CODE:0c1b(j)  
       CODE:0c23 64 e6           JMP        LAB_CODE_0be6
                             LAB_CODE_0c25                                   XREF[1]:     CODE:0c1f(j)  
       CODE:0c25 bc f8           MOV        R4,#0xf8
       CODE:0c27 64 e6           JMP        LAB_CODE_0be6
                             **************************************************************
                             *                          FUNCTION                          *
                             **************************************************************
                             undefined 300Lookup_INT23()
                               assume membank = 0x1
             undefined         A:1            <RETURN>
                             300Lookup_INT23                                 XREF[3]:     FUN_CODE_0800:083f(c), 
                                                                                          FUN_CODE_0800:084c(c), 
                                                                                          FUN_CODE_0800:0860(c)  
       CODE:0c29 b1 01           MOV        @R1,#0x1
       CODE:0c2b b9 23           MOV        R1,#0x23
       CODE:0c2d f1              MOV        A,@R1=>DAT_INTMEM_23                             = ??
       CODE:0c2e 53 f0           ANL        A,#0xf0
       CODE:0c30 47              SWAP       A
       CODE:0c31 68              ADD        A,R0
       CODE:0c32 a3              MOVP       A,@A
       CODE:0c33 aa              MOV        R2,A
       CODE:0c34 b9 3f           MOV        R1,#0x3f
       CODE:0c36 83              RET
       CODE:0c37 03              ??         03h
       CODE:0c38 03              ??         03h
       CODE:0c39 03              ??         03h
       CODE:0c3a 03              ??         03h
       CODE:0c3b 03              ??         03h
       CODE:0c3c 03              ??         03h
       CODE:0c3d 03              ??         03h
       CODE:0c3e 03              ??         03h
       CODE:0c3f 03              ??         03h
       CODE:0c40 03              ??         03h
       CODE:0c41 03              ??         03h
       CODE:0c42 03              ??         03h
       CODE:0c43 02              ??         02h
       CODE:0c44 02              ??         02h
       CODE:0c45 02              ??         02h
       CODE:0c46 02              ??         02h
       CODE:0c47 1a              ??         1Ah
       CODE:0c48 1a              ??         1Ah
       CODE:0c49 1a              ??         1Ah
       CODE:0c4a 1a              ??         1Ah
       CODE:0c4b 1a              ??         1Ah
       CODE:0c4c 1b              ??         1Bh
       CODE:0c4d 18              ??         18h
       CODE:0c4e 15              ??         15h
       CODE:0c4f 15              ??         15h
       CODE:0c50 12              ??         12h
       CODE:0c51 10              ??         10h
       CODE:0c52 0c              ??         0Ch
       CODE:0c53 08              ??         08h
       CODE:0c54 08              ??         08h
       CODE:0c55 08              ??         08h
       CODE:0c56 08              ??         08h
       CODE:0c57 e7              ??         E7h
       CODE:0c58 e7              ??         E7h
       CODE:0c59 e7              ??         E7h
       CODE:0c5a e7              ??         E7h
       CODE:0c5b e7              ??         E7h
       CODE:0c5c e7              ??         E7h
       CODE:0c5d ea              ??         EAh
       CODE:0c5e ed              ??         EDh
       CODE:0c5f ef              ??         EFh
       CODE:0c60 f2              ??         F2h
       CODE:0c61 f4              ??         F4h
       CODE:0c62 f8              ??         F8h
       CODE:0c63 f8              ??         F8h
       CODE:0c64 f8              ??         F8h
       CODE:0c65 f8              ??         F8h
       CODE:0c66 f8              ??         F8h
       CODE:0c67 01              ??         01h
       CODE:0c68 01              ??         01h
       CODE:0c69 01              ??         01h
       CODE:0c6a 01              ??         01h
       CODE:0c6b 01              ??         01h
       CODE:0c6c 01              ??         01h
       CODE:0c6d 01              ??         01h
       CODE:0c6e 01              ??         01h
       CODE:0c6f 01              ??         01h
       CODE:0c70 01              ??         01h
       CODE:0c71 01              ??         01h
       CODE:0c72 01              ??         01h
       CODE:0c73 01              ??         01h
       CODE:0c74 01              ??         01h
       CODE:0c75 01              ??         01h
       CODE:0c76 01              ??         01h
                             **************************************************************
                             *                          FUNCTION                          *
                             **************************************************************
                             undefined FUN_CODE_0c77()
                               assume membank = 0x1
             undefined         A:1            <RETURN>
                             FUN_CODE_0c77                                   XREF[2]:     RESET:0ca5(c), RESET:0ca7(c)  
       CODE:0c77 97              CLR        C
       CODE:0c78 fb              MOV        A,R3
       CODE:0c79 67              RRC        A
       CODE:0c7a ab              MOV        R3,A
       CODE:0c7b fc              MOV        A,R4
       CODE:0c7c 67              RRC        A
       CODE:0c7d ac              MOV        R4,A
       CODE:0c7e 83              RET
                             **************************************************************
                             *                          FUNCTION                          *
                             **************************************************************
                             undefined FUN_CODE_0c7f()
                               assume membank = 0x1
             undefined         A:1            <RETURN>
                             FUN_CODE_0c7f                                   XREF[6]:     RESET:0cc9(c), RESET:0cd7(c), 
                                                                                          RESET:0ce5(c), RESET:0cf3(c), 
                                                                                          RESET:0d0c(c), RESET:0d16(c)  
       CODE:0c7f 97              CLR        C
       CODE:0c80 fd              MOV        A,R5
       CODE:0c81 67              RRC        A
       CODE:0c82 ad              MOV        R5,A
       CODE:0c83 fe              MOV        A,R6
       CODE:0c84 67              RRC        A
       CODE:0c85 ae              MOV        R6,A
       CODE:0c86 83              RET
                             LAB_CODE_0c87                                   XREF[1]:     CODE:0178(j)  
       CODE:0c87 b8 51           MOV        R0,#0x51
       CODE:0c89 f0              MOV        A,@R0=>DAT_INTMEM_51                             = ??
       CODE:0c8a b0 00           MOV        @R0=>DAT_INTMEM_51,#0x0                          = ??
       CODE:0c8c 96 8f           JNZ        LAB_CODE_0c8f
       CODE:0c8e 17              INC        A
                             LAB_CODE_0c8f                                   XREF[1]:     CODE:0c8c(j)  
       CODE:0c8f 37              CPL        A
       CODE:0c90 17              INC        A
       CODE:0c91 aa              MOV        R2,A
       CODE:0c92 b9 25           MOV        R1,#0x25
       CODE:0c94 15              DIS        I
       CODE:0c95 f1              MOV        A,@R1=>DAT_INTMEM_25                             = ??
       CODE:0c96 ae              MOV        R6,A
       CODE:0c97 03 40           ADD        A,#0x40
       CODE:0c99 ac              MOV        R4,A
       CODE:0c9a 19              INC        R1
       CODE:0c9b f1              MOV        A,@R1=>DAT_INTMEM_26                             = ??
       CODE:0c9c 05              EN         I
       CODE:0c9d ad              MOV        R5,A
       CODE:0c9e c6 b0           JZ         LAB_CODE_0cb0
       CODE:0ca0 13 fe           ADDC       A,#0xfe
       CODE:0ca2 ab              MOV        R3,A
       CODE:0ca3 e6 b0           JNC        LAB_CODE_0cb0
       CODE:0ca5 94 77           CALL       FUN_CODE_0c77                                    undefined FUN_CODE_0c77()
       CODE:0ca7 94 77           CALL       FUN_CODE_0c77                                    undefined FUN_CODE_0c77()
       CODE:0ca9 fc              MOV        A,R4
       CODE:0caa a0              MOV        @R0=>DAT_INTMEM_51,A                             = ??
       CODE:0cab fb              MOV        A,R3
       CODE:0cac c6 b0           JZ         LAB_CODE_0cb0
       CODE:0cae b0 ff           MOV        @R0=>DAT_INTMEM_51,#0xff                         = ??
                             LAB_CODE_0cb0                                   XREF[3]:     CODE:0c9e(j), CODE:0ca3(j), 
                                                                                          CODE:0cac(j)  
       CODE:0cb0 fa              MOV        A,R2
       CODE:0cb1 60              ADD        A,@R0=>DAT_INTMEM_51                             = ??
       CODE:0cb2 f2 b8           JB0x7      LAB_CODE_0cb8
       CODE:0cb4 f6 bc           JC         LAB_CODE_0cbc
       CODE:0cb6 23 80           MOV        A,#0x80
                             LAB_CODE_0cb8                                   XREF[1]:     CODE:0cb2(j)  
       CODE:0cb8 e6 bc           JNC        LAB_CODE_0cbc
       CODE:0cba 23 7f           MOV        A,#0x7f
                             LAB_CODE_0cbc                                   XREF[2]:     CODE:0cb4(j), CODE:0cb8(j)  
       CODE:0cbc 18              INC        R0
       CODE:0cbd a0              MOV        @R0=>DAT_INTMEM_52,A                             = ??
       CODE:0cbe fd              MOV        A,R5
       CODE:0cbf 96 c9           JNZ        LAB_CODE_0cc9
       CODE:0cc1 fe              MOV        A,R6
       CODE:0cc2 03 bf           ADD        A,#0xbf
       CODE:0cc4 f6 c9           JC         LAB_CODE_0cc9
       CODE:0cc6 fe              MOV        A,R6
       CODE:0cc7 a4 1a           JMP        LAB_CODE_0d1a
                             LAB_CODE_0cc9                                   XREF[2]:     CODE:0cbf(j), CODE:0cc4(j)  
       CODE:0cc9 94 7f           CALL       FUN_CODE_0c7f                                    undefined FUN_CODE_0c7f()
       CODE:0ccb fd              MOV        A,R5
       CODE:0ccc 96 d7           JNZ        LAB_CODE_0cd7
       CODE:0cce fe              MOV        A,R6
       CODE:0ccf 03 af           ADD        A,#0xaf
       CODE:0cd1 f6 d7           JC         LAB_CODE_0cd7
       CODE:0cd3 03 71           ADD        A,#0x71
       CODE:0cd5 a4 1a           JMP        LAB_CODE_0d1a
                             LAB_CODE_0cd7                                   XREF[2]:     CODE:0ccc(j), CODE:0cd1(j)  
       CODE:0cd7 94 7f           CALL       FUN_CODE_0c7f                                    undefined FUN_CODE_0c7f()
       CODE:0cd9 fd              MOV        A,R5
       CODE:0cda 96 e5           JNZ        LAB_CODE_0ce5
       CODE:0cdc fe              MOV        A,R6
       CODE:0cdd 03 b7           ADD        A,#0xb7
       CODE:0cdf f6 e5           JC         LAB_CODE_0ce5
       CODE:0ce1 03 91           ADD        A,#0x91
       CODE:0ce3 a4 1a           JMP        LAB_CODE_0d1a
                             LAB_CODE_0ce5                                   XREF[2]:     CODE:0cda(j), CODE:0cdf(j)  
       CODE:0ce5 94 7f           CALL       FUN_CODE_0c7f                                    undefined FUN_CODE_0c7f()
       CODE:0ce7 fd              MOV        A,R5
       CODE:0ce8 96 f3           JNZ        LAB_CODE_0cf3
       CODE:0cea fe              MOV        A,R6
       CODE:0ceb 03 bb           ADD        A,#0xbb
       CODE:0ced f6 f3           JC         LAB_CODE_0cf3
       CODE:0cef 03 b1           ADD        A,#0xb1
       CODE:0cf1 a4 1a           JMP        LAB_CODE_0d1a
                             LAB_CODE_0cf3                                   XREF[2]:     CODE:0ce8(j), CODE:0ced(j)  
       CODE:0cf3 94 7f           CALL       FUN_CODE_0c7f                                    undefined FUN_CODE_0c7f()
       CODE:0cf5 fd              MOV        A,R5
       CODE:0cf6 00              NOP
       CODE:0cf7 96 fb           JNZ        LAB_CODE_0cfb
       CODE:0cf9 a4 03           JMP        LAB_CODE_0d03
                             LAB_CODE_0cfb                                   XREF[1]:     CODE:0cf7(j)  
       CODE:0cfb b8 35           MOV        R0,#0x35
       CODE:0cfd b0 00           MOV        @R0=>UBATT,#0x0                                  = ??
       CODE:0cff 23 ff           MOV        A,#0xff
       CODE:0d01 a4 1a           JMP        LAB_CODE_0d1a
                             LAB_CODE_0d03                                   XREF[1]:     CODE:0cf9(j)  
       CODE:0d03 fe              MOV        A,R6
       CODE:0d04 03 cd           ADD        A,#0xcd
       CODE:0d06 f6 0c           JC         LAB_CODE_0d0c
       CODE:0d08 03 c1           ADD        A,#0xc1
       CODE:0d0a a4 1a           JMP        LAB_CODE_0d1a
                             LAB_CODE_0d0c                                   XREF[1]:     CODE:0d06(j)  
       CODE:0d0c 94 7f           CALL       FUN_CODE_0c7f                                    undefined FUN_CODE_0c7f()
       CODE:0d0e 03 d6           ADD        A,#0xd6
       CODE:0d10 f6 16           JC         LAB_CODE_0d16
       CODE:0d12 03 d1           ADD        A,#0xd1
       CODE:0d14 a4 1a           JMP        LAB_CODE_0d1a
                             LAB_CODE_0d16                                   XREF[1]:     CODE:0d10(j)  
       CODE:0d16 94 7f           CALL       FUN_CODE_0c7f                                    undefined FUN_CODE_0c7f()
       CODE:0d18 03 bc           ADD        A,#0xbc
                             LAB_CODE_0d1a                                   XREF[7]:     CODE:0cc7(j), CODE:0cd5(j), 
                                                                                          CODE:0ce3(j), CODE:0cf1(j), 
                                                                                          CODE:0d01(j), CODE:0d0a(j), 
                                                                                          CODE:0d14(j)  
       CODE:0d1a b8 24           MOV        R0,#0x24
       CODE:0d1c a0              MOV        @R0=>DAT_INTMEM_24,A                             = ??
       CODE:0d1d 03 28           ADD        A,#0x28
       CODE:0d1f 85              CLR        F0
       CODE:0d20 f6 29           JC         LAB_CODE_0d29
       CODE:0d22 b9 22           MOV        R1,#0x22
       CODE:0d24 f1              MOV        A,@R1=>AC?                                       = ??
       CODE:0d25 43 01           ORL        A,#0x1
       CODE:0d27 a1              MOV        @R1=>AC?,A                                       = ??
       CODE:0d28 95              CPL        F0
                             LAB_CODE_0d29                                   XREF[1]:     CODE:0d20(j)  
       CODE:0d29 f0              MOV        A,@R0=>DAT_INTMEM_24                             = ??
       CODE:0d2a c8              DEC        R0
       CODE:0d2b 60              ADD        A,@R0=>DAT_INTMEM_23                             = ??
       CODE:0d2c 67              RRC        A
       CODE:0d2d a0              MOV        @R0=>DAT_INTMEM_23,A                             = ??
       CODE:0d2e b8 35           MOV        R0,#0x35
       CODE:0d30 f0              MOV        A,@R0=>UBATT                                     = ??
       CODE:0d31 96 38           JNZ        LAB_CODE_0d38
       CODE:0d33 b6 38           JF0        LAB_CODE_0d38
       CODE:0d35 e5              SEL        MB0
       CODE:0d36 24 7a           JMP        LAB_CODE_017a
                             LAB_CODE_0d38                                   XREF[2]:     CODE:0d31(j), CODE:0d33(j)  
       CODE:0d38 e5              SEL        MB0
       CODE:0d39 24 9d           JMP        LAB_CODE_019d
                             **************************************************************
                             *                          FUNCTION                          *
                             **************************************************************
                             undefined FUN_CODE_0d3b()
                               assume membank = 0x1
             undefined         A:1            <RETURN>
                             FUN_CODE_0d3b                                   XREF[2]:     idleValve:0a10(c), 
                                                                                          idleValve:0a50(c)  
       CODE:0d3b b8 22           MOV        R0,#0x22
       CODE:0d3d b9 56           MOV        R1,#0x56
       CODE:0d3f f0              MOV        A,@R0=>AC?                                       = ??
       CODE:0d40 53 50           ANL        A,#0x50
       CODE:0d42 37              CPL        A
       CODE:0d43 a1              MOV        @R1=>DAT_INTMEM_56,A                             = ??
       CODE:0d44 aa              MOV        R2,A
       CODE:0d45 b9 53           MOV        R1,#0x53
       CODE:0d47 89 40           ORL        P1,#0x40
       CODE:0d49 d2 53           JB0x6      LAB_CODE_0d53
       CODE:0d4b f1              MOV        A,@R1=>DAT_INTMEM_53                             = ??
       CODE:0d4c 03 30           ADD        A,#0x30
       CODE:0d4e a1              MOV        @R1=>DAT_INTMEM_53,A                             = ??
       CODE:0d4f e6 53           JNC        LAB_CODE_0d53
       CODE:0d51 b1 ff           MOV        @R1=>DAT_INTMEM_53,#0xff                         = ??
                             LAB_CODE_0d53                                   XREF[2]:     CODE:0d49(j), CODE:0d4f(j)  
       CODE:0d53 fa              MOV        A,R2
       CODE:0d54 92 5e           JB0x4      LAB_CODE_0d5e
       CODE:0d56 f1              MOV        A,@R1=>DAT_INTMEM_53                             = ??
       CODE:0d57 03 08           ADD        A,#0x8
       CODE:0d59 a1              MOV        @R1=>DAT_INTMEM_53,A                             = ??
       CODE:0d5a e6 5e           JNC        LAB_CODE_0d5e
       CODE:0d5c b1 ff           MOV        @R1=>DAT_INTMEM_53,#0xff                         = ??
                             LAB_CODE_0d5e                                   XREF[2]:     CODE:0d54(j), CODE:0d5a(j)  
       CODE:0d5e 99 bf           ANL        P1,#0xbf
       CODE:0d60 83              RET
                             **************************************************************
                             *                          FUNCTION                          *
                             **************************************************************
                             undefined FUN_CODE_0d61()
                               assume membank = 0x1
             undefined         A:1            <RETURN>
                             FUN_CODE_0d61                                   XREF[1]:     idleValve:090c(c)  
       CODE:0d61 ae              MOV        R6,A
       CODE:0d62 b8 36           MOV        R0,#0x36
       CODE:0d64 f0              MOV        A,@R0=>ECT                                       = ??
       CODE:0d65 e7              RL         A
       CODE:0d66 47              SWAP       A
       CODE:0d67 53 07           ANL        A,#0x7
       CODE:0d69 03 6f           ADD        A,#0x6f
       CODE:0d6b a3              MOVP       A,@A
       CODE:0d6c 6e              ADD        A,R6
       CODE:0d6d ae              MOV        R6,A
       CODE:0d6e 83              RET
       CODE:0d6f 30              ??         30h    0
       CODE:0d70 2c              ??         2Ch    ,
       CODE:0d71 34              ??         34h    4
       CODE:0d72 3a              ??         3Ah    :
       CODE:0d73 40              ??         40h    @
       CODE:0d74 44              ??         44h    D
       CODE:0d75 4a              ??         4Ah    J
       CODE:0d76 4a              ??         4Ah    J
                             **************************************************************
                             *                          FUNCTION                          *
                             **************************************************************
                             undefined FUN_CODE_0d77()
                               assume membank = 0x1
             undefined         A:1            <RETURN>
                             FUN_CODE_0d77                                   XREF[5]:     RESET:016a(c), idleValve:08d0(c), 
                                                                                          idleValve:0978(c), 
                                                                                          FUN_CODE_0b51:0b53(c), 
                                                                                          idleValve:0b8b(c)  
       CODE:0d77 b9 36           MOV        R1,#0x36
                             **************************************************************
                             *                          FUNCTION                          *
                             **************************************************************
                             undefined FUN_CODE_0d79()
                               assume membank = 0x1
             undefined         A:1            <RETURN>
                             FUN_CODE_0d79                                   XREF[1]:     idleValve:098a(c)  
       CODE:0d79 f1              MOV        A,@R1=>ECT                                       = ??
       CODE:0d7a a9              MOV        R1,A
       CODE:0d7b e5              SEL        MB0
       CODE:0d7c b4 c0           CALL       RegCleanup                                       undefined RegCleanup(void)
       CODE:0d7e f5              SEL        MB1
                             LAB_CODE_0d7f                                   XREF[1]:     CODE:0d8f(j)  
       CODE:0d7f f9              MOV        A,R1
       CODE:0d80 53 f0           ANL        A,#0xf0
       CODE:0d82 47              SWAP       A
       CODE:0d83 78              ADDC       A,R0
       CODE:0d84 a3              MOVP       A,@A
       CODE:0d85 e5              SEL        MB0
       CODE:0d86 b4 cf           CALL       FUN_CODE_05cf                                    undefined FUN_CODE_05cf()
       CODE:0d88 f5              SEL        MB1
       CODE:0d89 19              INC        R1
       CODE:0d8a f9              MOV        A,R1
       CODE:0d8b 96 8f           JNZ        LAB_CODE_0d8f
       CODE:0d8d c9              DEC        R1
       CODE:0d8e a7              CPL        C
                             LAB_CODE_0d8f                                   XREF[1]:     CODE:0d8b(j)  
       CODE:0d8f ec 7f           DJNZ       R4,LAB_CODE_0d7f
       CODE:0d91 e5              SEL        MB0
       CODE:0d92 b4 d5           CALL       FUN_CODE_05d5                                    undefined FUN_CODE_05d5()
       CODE:0d94 f5              SEL        MB1
       CODE:0d95 83              RET
       CODE:0d96 23              ??         23h    #
       CODE:0d97 35              ??         35h    5
       CODE:0d98 48              ??         48h    H
       CODE:0d99 51              ??         51h    Q
       CODE:0d9a 5b              ??         5Bh    [
       CODE:0d9b 6b              ??         6Bh    k
       CODE:0d9c 7b              ??         7Bh    {
       CODE:0d9d a1              ??         A1h
       CODE:0d9e c8              ??         C8h
       CODE:0d9f d7              ??         D7h
       CODE:0da0 e9              ??         E9h
       CODE:0da1 f9              ??         F9h
       CODE:0da2 ff              ??         FFh
       CODE:0da3 ff              ??         FFh
       CODE:0da4 ff              ??         FFh
       CODE:0da5 ff              ??         FFh
       CODE:0da6 28              ??         28h    (
       CODE:0da7 10              ??         10h
       CODE:0da8 10              ??         10h
       CODE:0da9 18              ??         18h
       CODE:0daa 20              ??         20h     
       CODE:0dab 26              ??         26h    &
       CODE:0dac 2c              ??         2Ch    ,
       CODE:0dad 30              ??         30h    0
       CODE:0dae 33              ??         33h    3
       CODE:0daf 36              ??         36h    6
       CODE:0db0 39              ??         39h    9
       CODE:0db1 3c              ??         3Ch    <
       CODE:0db2 3f              ??         3Fh    ?
       CODE:0db3 42              ??         42h    B
       CODE:0db4 45              ??         45h    E
       CODE:0db5 48              ??         48h    H
       CODE:0db6 4b              ??         4Bh    K
       CODE:0db7 20              ??         20h     
       CODE:0db8 74              ??         74h    t
       CODE:0db9 6c              ??         6Ch    l
       CODE:0dba 64              ??         64h    d
       CODE:0dbb 54              ??         54h    T
       CODE:0dbc 44              ??         44h    D
       CODE:0dbd 30              ??         30h    0
       CODE:0dbe 20              ??         20h     
       CODE:0dbf 10              ??         10h
       CODE:0dc0 04              ??         04h
       CODE:0dc1 04              ??         04h
       CODE:0dc2 04              ??         04h
       CODE:0dc3 04              ??         04h
       CODE:0dc4 88              ??         88h
       CODE:0dc5 88              ??         88h
       CODE:0dc6 70              ??         70h    p
       CODE:0dc7 60              ??         60h    `
       CODE:0dc8 60              ??         60h    `
       CODE:0dc9 60              ??         60h    `
       CODE:0dca 50              ??         50h    P
       CODE:0dcb 48              ??         48h    H
       CODE:0dcc 40              ??         40h    @
       CODE:0dcd 3c              ??         3Ch    <
       CODE:0dce 38              ??         38h    8
       CODE:0dcf 34              ??         34h    4
       CODE:0dd0 30              ??         30h    0
       CODE:0dd1 30              ??         30h    0
       CODE:0dd2 30              ??         30h    0
       CODE:0dd3 30              ??         30h    0
       CODE:0dd4 70              ??         70h    p
       CODE:0dd5 d8              ??         D8h
       CODE:0dd6 d8              ??         D8h
       CODE:0dd7 e0              ??         E0h
       CODE:0dd8 e8              ??         E8h
       CODE:0dd9 e8              ??         E8h
       CODE:0dda e8              ??         E8h
       CODE:0ddb ec              ??         ECh
       CODE:0ddc ec              ??         ECh
       CODE:0ddd ec              ??         ECh
       CODE:0dde f0              ??         F0h
       CODE:0ddf f0              ??         F0h
       CODE:0de0 f0              ??         F0h
       CODE:0de1 f4              ??         F4h
       CODE:0de2 f4              ??         F4h
       CODE:0de3 f4              ??         F4h
       CODE:0de4 f4              ??         F4h
       CODE:0de5 e8              ??         E8h
       CODE:0de6 00              ??         00h
       CODE:0de7 00              ??         00h
       CODE:0de8 0b              ??         0Bh
       CODE:0de9 13              ??         13h
       CODE:0dea 1e              ??         1Eh
       CODE:0deb 21              ??         21h    !
       CODE:0dec 25              ??         25h    %
       CODE:0ded 27              ??         27h    '
       CODE:0dee 29              ??         29h    )
       CODE:0def 2b              ??         2Bh    +
       CODE:0df0 2f              ??         2Fh    /
       CODE:0df1 32              ??         32h    2
       CODE:0df2 35              ??         35h    5
       CODE:0df3 38              ??         38h    8
       CODE:0df4 3a              ??         3Ah    :
       CODE:0df5 3d              ??         3Dh    =
       CODE:0df6 00              ??         00h
       CODE:0df7 41              ??         41h    A
       CODE:0df8 41              ??         41h    A
       CODE:0df9 41              ??         41h    A
       CODE:0dfa 41              ??         41h    A
       CODE:0dfb 41              ??         41h    A
       CODE:0dfc 41              ??         41h    A
       CODE:0dfd 41              ??         41h    A
       CODE:0dfe 41              ??         41h    A
       CODE:0dff 41              ??         41h    A
       CODE:0e00 d0              ??         D0h
       CODE:0e01 da              ??         DAh
       CODE:0e02 d4              ??         D4h
       CODE:0e03 cc              ??         CCh
       CODE:0e04 be              ??         BEh
       CODE:0e05 a7              ??         A7h
       CODE:0e06 9d              ??         9Dh
       CODE:0e07 94              ??         94h
       CODE:0e08 8a              ??         8Ah
       CODE:0e09 77              ??         77h    w
       CODE:0e0a 70              ??         70h    p
       CODE:0e0b 7b              ??         7Bh    {
       CODE:0e0c 63              ??         63h    c
       CODE:0e0d 82              ??         82h
       CODE:0e0e b0              ??         B0h
       CODE:0e0f b4              ??         B4h
                             **************************************************************
                             *                          FUNCTION                          *
                             **************************************************************
                             undefined E00FuelLookup()
                               assume membank = 0x1
             undefined         A:1            <RETURN>
                             E00FuelLookup                                   XREF[1]:     300FuelLookup:0695(c)  
       CODE:0e10 a3              MOVP       A,@A
       CODE:0e11 83              RET
       CODE:0e12 13              ??         13h
       CODE:0e13 06              ??         06h
       CODE:0e14 86              ??         86h
       CODE:0e15 10              ??         10h
       CODE:0e16 12              ??         12h
       CODE:0e17 12              ??         12h
       CODE:0e18 16              ??         16h
       CODE:0e19 19              ??         19h
       CODE:0e1a 1b              ??         1Bh
       CODE:0e1b 31              ??         31h    1
       CODE:0e1c 38              ??         38h    8
       CODE:0e1d 51              ??         51h    Q
       CODE:0e1e b0              ??         B0h
       CODE:0e1f b4              ??         B4h
       CODE:0e20 a1              ??         A1h
       CODE:0e21 a1              ??         A1h
       CODE:0e22 0f              ??         0Fh
       CODE:0e23 11              ??         11h
       CODE:0e24 12              ??         12h
       CODE:0e25 16              ??         16h
       CODE:0e26 18              ??         18h
       CODE:0e27 1a              ??         1Ah
       CODE:0e28 1e              ??         1Eh
       CODE:0e29 22              ??         22h    "
       CODE:0e2a 35              ??         35h    5
       CODE:0e2b 3d              ??         3Dh    =
       CODE:0e2c 51              ??         51h    Q
       CODE:0e2d 72              ??         72h    r
       CODE:0e2e ad              ??         ADh
       CODE:0e2f b1              ??         B1h
       CODE:0e30 a1              ??         A1h
       CODE:0e31 a1              ??         A1h
       CODE:0e32 15              ??         15h
       CODE:0e33 16              ??         16h
       CODE:0e34 18              ??         18h
       CODE:0e35 1a              ??         1Ah
       CODE:0e36 1c              ??         1Ch
       CODE:0e37 1d              ??         1Dh
       CODE:0e38 2f              ??         2Fh    /
       CODE:0e39 36              ??         36h    6
       CODE:0e3a 3f              ??         3Fh    ?
       CODE:0e3b 51              ??         51h    Q
       CODE:0e3c 68              ??         68h    h
       CODE:0e3d 87              ??         87h
       CODE:0e3e c5              ??         C5h
       CODE:0e3f cb              ??         CBh
       CODE:0e40 12              ??         12h
       CODE:0e41 16              ??         16h
       CODE:0e42 18              ??         18h
       CODE:0e43 1a              ??         1Ah
       CODE:0e44 1b              ??         1Bh
       CODE:0e45 1f              ??         1Fh
       CODE:0e46 2e              ??         2Eh    .
       CODE:0e47 31              ??         31h    1
       CODE:0e48 38              ??         38h    8
       CODE:0e49 42              ??         42h    B
       CODE:0e4a 54              ??         54h    T
       CODE:0e4b 67              ??         67h    g
       CODE:0e4c 80              ??         80h
       CODE:0e4d a3              ??         A3h
       CODE:0e4e c9              ??         C9h
       CODE:0e4f ce              ??         CEh
       CODE:0e50 1a              ??         1Ah
       CODE:0e51 1d              ??         1Dh
       CODE:0e52 20              ??         20h     
       CODE:0e53 22              ??         22h    "
       CODE:0e54 30              ??         30h    0
       CODE:0e55 32              ??         32h    2
       CODE:0e56 38              ??         38h    8
       CODE:0e57 3e              ??         3Eh    >
       CODE:0e58 46              ??         46h    F
       CODE:0e59 56              ??         56h    V
       CODE:0e5a 6c              ??         6Ch    l
       CODE:0e5b 80              ??         80h
       CODE:0e5c 99              ??         99h
       CODE:0e5d c1              ??         C1h
       CODE:0e5e cb              ??         CBh
       CODE:0e5f d0              ??         D0h
       CODE:0e60 2d              ??         2Dh    -
       CODE:0e61 31              ??         31h    1
       CODE:0e62 33              ??         33h    3
       CODE:0e63 36              ??         36h    6
       CODE:0e64 39              ??         39h    9
       CODE:0e65 41              ??         41h    A
       CODE:0e66 44              ??         44h    D
       CODE:0e67 4c              ??         4Ch    L
       CODE:0e68 5b              ??         5Bh    [
       CODE:0e69 6c              ??         6Ch    l
       CODE:0e6a 84              ??         84h
       CODE:0e6b 98              ??         98h
       CODE:0e6c b1              ??         B1h
       CODE:0e6d d7              ??         D7h
       CODE:0e6e d5              ??         D5h
       CODE:0e6f d9              ??         D9h
       CODE:0e70 36              ??         36h    6
       CODE:0e71 3d              ??         3Dh    =
       CODE:0e72 44              ??         44h    D
       CODE:0e73 45              ??         45h    E
       CODE:0e74 45              ??         45h    E
       CODE:0e75 50              ??         50h    P
       CODE:0e76 58              ??         58h    X
       CODE:0e77 62              ??         62h    b
       CODE:0e78 6d              ??         6Dh    m
       CODE:0e79 85              ??         85h
       CODE:0e7a 9f              ??         9Fh
       CODE:0e7b b2              ??         B2h
       CODE:0e7c c7              ??         C7h
       CODE:0e7d cb              ??         CBh
       CODE:0e7e d8              ??         D8h
       CODE:0e7f dc              ??         DCh
       CODE:0e80 48              ??         48h    H
       CODE:0e81 50              ??         50h    P
       CODE:0e82 52              ??         52h    R
       CODE:0e83 55              ??         55h    U
       CODE:0e84 59              ??         59h    Y
       CODE:0e85 65              ??         65h    e
       CODE:0e86 6f              ??         6Fh    o
       CODE:0e87 73              ??         73h    s
       CODE:0e88 85              ??         85h
       CODE:0e89 9e              ??         9Eh
       CODE:0e8a b7              ??         B7h
       CODE:0e8b c9              ??         C9h
       CODE:0e8c c7              ??         C7h
       CODE:0e8d c5              ??         C5h
       CODE:0e8e dc              ??         DCh
       CODE:0e8f e0              ??         E0h
       CODE:0e90 58              ??         58h    X
       CODE:0e91 5b              ??         5Bh    [
       CODE:0e92 67              ??         67h    g
       CODE:0e93 6a              ??         6Ah    j
       CODE:0e94 71              ??         71h    q
       CODE:0e95 7d              ??         7Dh    }
       CODE:0e96 82              ??         82h
       CODE:0e97 8c              ??         8Ch
       CODE:0e98 a4              ??         A4h
       CODE:0e99 bd              ??         BDh
       CODE:0e9a cb              ??         CBh
       CODE:0e9b cd              ??         CDh
       CODE:0e9c c6              ??         C6h
       CODE:0e9d c1              ??         C1h
       CODE:0e9e e0              ??         E0h
       CODE:0e9f e3              ??         E3h
       CODE:0ea0 6a              ??         6Ah    j
       CODE:0ea1 73              ??         73h    s
       CODE:0ea2 7e              ??         7Eh    ~
       CODE:0ea3 83              ??         83h
       CODE:0ea4 83              ??         83h
       CODE:0ea5 90              ??         90h
       CODE:0ea6 9b              ??         9Bh
       CODE:0ea7 ab              ??         ABh
       CODE:0ea8 c0              ??         C0h
       CODE:0ea9 d5              ??         D5h
       CODE:0eaa d9              ??         D9h
       CODE:0eab c6              ??         C6h
       CODE:0eac c3              ??         C3h
       CODE:0ead c1              ??         C1h
       CODE:0eae e4              ??         E4h
       CODE:0eaf e7              ??         E7h
       CODE:0eb0 84              ??         84h
       CODE:0eb1 90              ??         90h
       CODE:0eb2 98              ??         98h
       CODE:0eb3 a0              ??         A0h
       CODE:0eb4 a0              ??         A0h
       CODE:0eb5 ad              ??         ADh
       CODE:0eb6 bd              ??         BDh
       CODE:0eb7 c7              ??         C7h
       CODE:0eb8 d6              ??         D6h
       CODE:0eb9 ed              ??         EDh
       CODE:0eba c9              ??         C9h
       CODE:0ebb c6              ??         C6h
       CODE:0ebc c3              ??         C3h
       CODE:0ebd c1              ??         C1h
       CODE:0ebe e8              ??         E8h
       CODE:0ebf e9              ??         E9h
       CODE:0ec0 a0              ??         A0h
       CODE:0ec1 a9              ??         A9h
       CODE:0ec2 b2              ??         B2h
       CODE:0ec3 ba              ??         BAh
       CODE:0ec4 c3              ??         C3h
       CODE:0ec5 d5              ??         D5h
       CODE:0ec6 d7              ??         D7h
       CODE:0ec7 de              ??         DEh
       CODE:0ec8 e5              ??         E5h
       CODE:0ec9 cf              ??         CFh
       CODE:0eca c9              ??         C9h
       CODE:0ecb c6              ??         C6h
       CODE:0ecc c3              ??         C3h
       CODE:0ecd c1              ??         C1h
       CODE:0ece eb              ??         EBh
       CODE:0ecf ec              ??         ECh
       CODE:0ed0 b8              ??         B8h
       CODE:0ed1 c4              ??         C4h
       CODE:0ed2 cd              ??         CDh
       CODE:0ed3 de              ??         DEh
       CODE:0ed4 e4              ??         E4h
       CODE:0ed5 f3              ??         F3h
       CODE:0ed6 d0              ??         D0h
       CODE:0ed7 d2              ??         D2h
       CODE:0ed8 d1              ??         D1h
       CODE:0ed9 cf              ??         CFh
       CODE:0eda c9              ??         C9h
       CODE:0edb c6              ??         C6h
       CODE:0edc c3              ??         C3h
       CODE:0edd c1              ??         C1h
       CODE:0ede f3              ??         F3h
       CODE:0edf f4              ??         F4h
       CODE:0ee0 c8              ??         C8h
       CODE:0ee1 da              ??         DAh
       CODE:0ee2 f2              ??         F2h
       CODE:0ee3 ff              ??         FFh
       CODE:0ee4 da              ??         DAh
       CODE:0ee5 d8              ??         D8h
       CODE:0ee6 d5              ??         D5h
       CODE:0ee7 d2              ??         D2h
       CODE:0ee8 d1              ??         D1h
       CODE:0ee9 cf              ??         CFh
       CODE:0eea c9              ??         C9h
       CODE:0eeb c6              ??         C6h
       CODE:0eec c3              ??         C3h
       CODE:0eed c1              ??         C1h
       CODE:0eee f4              ??         F4h
       CODE:0eef f5              ??         F5h
       CODE:0ef0 cc              ??         CCh
       CODE:0ef1 d1              ??         D1h
       CODE:0ef2 d9              ??         D9h
       CODE:0ef3 da              ??         DAh
       CODE:0ef4 da              ??         DAh
       CODE:0ef5 d8              ??         D8h
       CODE:0ef6 d5              ??         D5h
       CODE:0ef7 d2              ??         D2h
       CODE:0ef8 d1              ??         D1h
       CODE:0ef9 cf              ??         CFh
       CODE:0efa c9              ??         C9h
       CODE:0efb c6              ??         C6h
       CODE:0efc c3              ??         C3h
       CODE:0efd c1              ??         C1h
       CODE:0efe f5              ??         F5h
       CODE:0eff f6              ??         F6h
       CODE:0f00 d0              ??         D0h
       CODE:0f01 da              ??         DAh
       CODE:0f02 d4              ??         D4h
       CODE:0f03 cc              ??         CCh
       CODE:0f04 be              ??         BEh
       CODE:0f05 a7              ??         A7h
       CODE:0f06 9d              ??         9Dh
       CODE:0f07 94              ??         94h
       CODE:0f08 8a              ??         8Ah
       CODE:0f09 77              ??         77h    w
       CODE:0f0a 70              ??         70h    p
       CODE:0f0b 7b              ??         7Bh    {
       CODE:0f0c 63              ??         63h    c
       CODE:0f0d 82              ??         82h
       CODE:0f0e b0              ??         B0h
       CODE:0f0f b4              ??         B4h
                             **************************************************************
                             *                          FUNCTION                          *
                             **************************************************************
                             undefined F00FuelLookup()
                               assume membank = 0x1
             undefined         A:1            <RETURN>
                             F00FuelLookup                                   XREF[1]:     300FuelLookup:068e(c)  
       CODE:0f10 a3              MOVP       A,@A
       CODE:0f11 83              RET
       CODE:0f12 01              ??         01h
       CODE:0f13 02              ??         02h
       CODE:0f14 04              ??         04h
       CODE:0f15 06              ??         06h
       CODE:0f16 07              ??         07h
       CODE:0f17 08              ??         08h
       CODE:0f18 0a              ??         0Ah
       CODE:0f19 10              ??         10h
       CODE:0f1a 21              ??         21h    !
       CODE:0f1b 28              ??         28h    (
       CODE:0f1c 48              ??         48h    H
       CODE:0f1d 4c              ??         4Ch    L
       CODE:0f1e b0              ??         B0h
       CODE:0f1f b4              ??         B4h
       CODE:0f20 cb              ??         CBh
       CODE:0f21 cb              ??         CBh
       CODE:0f22 00              ??         00h
       CODE:0f23 02              ??         02h
       CODE:0f24 04              ??         04h
       CODE:0f25 05              ??         05h
       CODE:0f26 05              ??         05h
       CODE:0f27 06              ??         06h
       CODE:0f28 08              ??         08h
       CODE:0f29 20              ??         20h     
       CODE:0f2a 24              ??         24h    $
       CODE:0f2b 2a              ??         2Ah    *
       CODE:0f2c 4b              ??         4Bh    K
       CODE:0f2d 6e              ??         6Eh    n
       CODE:0f2e ad              ??         ADh
       CODE:0f2f b1              ??         B1h
       CODE:0f30 cb              ??         CBh
       CODE:0f31 cb              ??         CBh
       CODE:0f32 08              ??         08h
       CODE:0f33 0a              ??         0Ah
       CODE:0f34 0e              ??         0Eh
       CODE:0f35 12              ??         12h
       CODE:0f36 14              ??         14h
       CODE:0f37 18              ??         18h
       CODE:0f38 29              ??         29h    )
       CODE:0f39 2e              ??         2Eh    .
       CODE:0f3a 38              ??         38h    8
       CODE:0f3b 47              ??         47h    G
       CODE:0f3c 64              ??         64h    d
       CODE:0f3d 8f              ??         8Fh
       CODE:0f3e d2              ??         D2h
       CODE:0f3f db              ??         DBh
       CODE:0f40 07              ??         07h
       CODE:0f41 0b              ??         0Bh
       CODE:0f42 10              ??         10h
       CODE:0f43 12              ??         12h
       CODE:0f44 17              ??         17h
       CODE:0f45 26              ??         26h    &
       CODE:0f46 2a              ??         2Ah    *
       CODE:0f47 2e              ??         2Eh    .
       CODE:0f48 34              ??         34h    4
       CODE:0f49 41              ??         41h    A
       CODE:0f4a 4f              ??         4Fh    O
       CODE:0f4b 63              ??         63h    c
       CODE:0f4c 80              ??         80h
       CODE:0f4d 8a              ??         8Ah
       CODE:0f4e c9              ??         C9h
       CODE:0f4f ce              ??         CEh
       CODE:0f50 12              ??         12h
       CODE:0f51 15              ??         15h
       CODE:0f52 1a              ??         1Ah
       CODE:0f53 29              ??         29h    )
       CODE:0f54 2c              ??         2Ch    ,
       CODE:0f55 2f              ??         2Fh    /
       CODE:0f56 36              ??         36h    6
       CODE:0f57 3c              ??         3Ch    <
       CODE:0f58 49              ??         49h    I
       CODE:0f59 54              ??         54h    T
       CODE:0f5a 69              ??         69h    i
       CODE:0f5b 7b              ??         7Bh    {
       CODE:0f5c 96              ??         96h
       CODE:0f5d bc              ??         BCh
       CODE:0f5e cb              ??         CBh
       CODE:0f5f d0              ??         D0h
       CODE:0f60 27              ??         27h    '
       CODE:0f61 30              ??         30h    0
       CODE:0f62 32              ??         32h    2
       CODE:0f63 35              ??         35h    5
       CODE:0f64 39              ??         39h    9
       CODE:0f65 42              ??         42h    B
       CODE:0f66 49              ??         49h    I
       CODE:0f67 50              ??         50h    P
       CODE:0f68 5f              ??         5Fh    _
       CODE:0f69 6c              ??         6Ch    l
       CODE:0f6a 81              ??         81h
       CODE:0f6b 93              ??         93h
       CODE:0f6c b0              ??         B0h
       CODE:0f6d da              ??         DAh
       CODE:0f6e d5              ??         D5h
       CODE:0f6f d9              ??         D9h
       CODE:0f70 36              ??         36h    6
       CODE:0f71 3e              ??         3Eh    >
       CODE:0f72 42              ??         42h    B
       CODE:0f73 47              ??         47h    G
       CODE:0f74 4d              ??         4Dh    M
       CODE:0f75 55              ??         55h    U
       CODE:0f76 60              ??         60h    `
       CODE:0f77 68              ??         68h    h
       CODE:0f78 76              ??         76h    v
       CODE:0f79 84              ??         84h
       CODE:0f7a 9c              ??         9Ch
       CODE:0f7b ae              ??         AEh
       CODE:0f7c c3              ??         C3h
       CODE:0f7d c1              ??         C1h
       CODE:0f7e d8              ??         D8h
       CODE:0f7f dc              ??         DCh
       CODE:0f80 42              ??         42h    B
       CODE:0f81 4f              ??         4Fh    O
       CODE:0f82 57              ??         57h    W
       CODE:0f83 59              ??         59h    Y
       CODE:0f84 61              ??         61h    a
       CODE:0f85 6c              ??         6Ch    l
       CODE:0f86 76              ??         76h    v
       CODE:0f87 80              ??         80h
       CODE:0f88 90              ??         90h
       CODE:0f89 a0              ??         A0h
       CODE:0f8a b7              ??         B7h
       CODE:0f8b c6              ??         C6h
       CODE:0f8c c3              ??         C3h
       CODE:0f8d c5              ??         C5h
       CODE:0f8e dc              ??         DCh
       CODE:0f8f e0              ??         E0h
       CODE:0f90 50              ??         50h    P
       CODE:0f91 63              ??         63h    c
       CODE:0f92 6a              ??         6Ah    j
       CODE:0f93 71              ??         71h    q
       CODE:0f94 77              ??         77h    w
       CODE:0f95 84              ??         84h
       CODE:0f96 8f              ??         8Fh
       CODE:0f97 9a              ??         9Ah
       CODE:0f98 ab              ??         ABh
       CODE:0f99 bb              ??         BBh
       CODE:0f9a cc              ??         CCh
       CODE:0f9b c6              ??         C6h
       CODE:0f9c c3              ??         C3h
       CODE:0f9d c1              ??         C1h
       CODE:0f9e e0              ??         E0h
       CODE:0f9f e3              ??         E3h
       CODE:0fa0 6b              ??         6Bh    k
       CODE:0fa1 7d              ??         7Dh    }
       CODE:0fa2 83              ??         83h
       CODE:0fa3 8a              ??         8Ah
       CODE:0fa4 92              ??         92h
       CODE:0fa5 9f              ??         9Fh
       CODE:0fa6 ab              ??         ABh
       CODE:0fa7 b7              ??         B7h
       CODE:0fa8 c8              ??         C8h
       CODE:0fa9 d1              ??         D1h
       CODE:0faa d2              ??         D2h
       CODE:0fab c6              ??         C6h
       CODE:0fac c3              ??         C3h
       CODE:0fad c1              ??         C1h
       CODE:0fae e4              ??         E4h
       CODE:0faf e7              ??         E7h
       CODE:0fb0 88              ??         88h
       CODE:0fb1 9a              ??         9Ah
       CODE:0fb2 9f              ??         9Fh
       CODE:0fb3 a9              ??         A9h
       CODE:0fb4 b0              ??         B0h
       CODE:0fb5 bd              ??         BDh
       CODE:0fb6 c8              ??         C8h
       CODE:0fb7 cf              ??         CFh
       CODE:0fb8 d2              ??         D2h
       CODE:0fb9 d8              ??         D8h
       CODE:0fba c9              ??         C9h
       CODE:0fbb c6              ??         C6h
       CODE:0fbc c3              ??         C3h
       CODE:0fbd c1              ??         C1h
       CODE:0fbe e8              ??         E8h
       CODE:0fbf e9              ??         E9h
       CODE:0fc0 a3              ??         A3h
       CODE:0fc1 b4              ??         B4h
       CODE:0fc2 bb              ??         BBh
       CODE:0fc3 c6              ??         C6h
       CODE:0fc4 cb              ??         CBh
       CODE:0fc5 d8              ??         D8h
       CODE:0fc6 d6              ??         D6h
       CODE:0fc7 d5              ??         D5h
       CODE:0fc8 d8              ??         D8h
       CODE:0fc9 cf              ??         CFh
       CODE:0fca c9              ??         C9h
       CODE:0fcb c6              ??         C6h
       CODE:0fcc c3              ??         C3h
       CODE:0fcd c1              ??         C1h
       CODE:0fce eb              ??         EBh
       CODE:0fcf ec              ??         ECh
       CODE:0fd0 c2              ??         C2h
       CODE:0fd1 ca              ??         CAh
       CODE:0fd2 d4              ??         D4h
       CODE:0fd3 db              ??         DBh
       CODE:0fd4 e0              ??         E0h
       CODE:0fd5 e5              ??         E5h
       CODE:0fd6 d0              ??         D0h
       CODE:0fd7 d2              ??         D2h
       CODE:0fd8 d1              ??         D1h
       CODE:0fd9 cf              ??         CFh
       CODE:0fda c9              ??         C9h
       CODE:0fdb c6              ??         C6h
       CODE:0fdc c3              ??         C3h
       CODE:0fdd c1              ??         C1h
       CODE:0fde f3              ??         F3h
       CODE:0fdf f4              ??         F4h
       CODE:0fe0 c4              ??         C4h
       CODE:0fe1 d2              ??         D2h
       CODE:0fe2 e0              ??         E0h
       CODE:0fe3 f0              ??         F0h
       CODE:0fe4 da              ??         DAh
       CODE:0fe5 d8              ??         D8h
       CODE:0fe6 d5              ??         D5h
       CODE:0fe7 d2              ??         D2h
       CODE:0fe8 d1              ??         D1h
       CODE:0fe9 cf              ??         CFh
       CODE:0fea c9              ??         C9h
       CODE:0feb c6              ??         C6h
       CODE:0fec c3              ??         C3h
       CODE:0fed c1              ??         C1h
       CODE:0fee f4              ??         F4h
       CODE:0fef f5              ??         F5h
       CODE:0ff0 cc              ??         CCh
       CODE:0ff1 d1              ??         D1h
       CODE:0ff2 d9              ??         D9h
       CODE:0ff3 da              ??         DAh
       CODE:0ff4 da              ??         DAh
       CODE:0ff5 d8              ??         D8h
       CODE:0ff6 d5              ??         D5h
       CODE:0ff7 d2              ??         D2h
       CODE:0ff8 d1              ??         D1h
       CODE:0ff9 cf              ??         CFh
       CODE:0ffa c9              ??         C9h
       CODE:0ffb c6              ??         C6h
       CODE:0ffc c3              ??         C3h
       CODE:0ffd c1              ??         C1h
       CODE:0ffe f5              ??         F5h
       CODE:0fff f6              ??         F6h
       CODE:1000 41              ??         41h    A
       CODE:1001 41              ??         41h    A
       CODE:1002 41              ??         41h    A
       CODE:1003 41              ??         41h    A
       CODE:1004 41              ??         41h    A
       CODE:1005 41              ??         41h    A
       CODE:1006 41              ??         41h    A
       CODE:1007 41              ??         41h    A
       CODE:1008 41              ??         41h    A
       CODE:1009 41              ??         41h    A
       CODE:100a 41              ??         41h    A
       CODE:100b 41              ??         41h    A
       CODE:100c 41              ??         41h    A
       CODE:100d 41              ??         41h    A
       CODE:100e 41              ??         41h    A
       CODE:100f 41              ??         41h    A
       CODE:1010 41              ??         41h    A
       CODE:1011 41              ??         41h    A
       CODE:1012 41              ??         41h    A
       CODE:1013 41              ??         41h    A
       CODE:1014 41              ??         41h    A
       CODE:1015 41              ??         41h    A
       CODE:1016 41              ??         41h    A
       CODE:1017 41              ??         41h    A
       CODE:1018 41              ??         41h    A
       CODE:1019 41              ??         41h    A
       CODE:101a 41              ??         41h    A
       CODE:101b 41              ??         41h    A
       CODE:101c 41              ??         41h    A
       CODE:101d 41              ??         41h    A
       CODE:101e 41              ??         41h    A
       CODE:101f 41              ??         41h    A
       CODE:1020 41              ??         41h    A
       CODE:1021 41              ??         41h    A
       CODE:1022 41              ??         41h    A
       CODE:1023 41              ??         41h    A
       CODE:1024 41              ??         41h    A
       CODE:1025 41              ??         41h    A
       CODE:1026 41              ??         41h    A
       CODE:1027 41              ??         41h    A
       CODE:1028 41              ??         41h    A
       CODE:1029 41              ??         41h    A
       CODE:102a 41              ??         41h    A
       CODE:102b 41              ??         41h    A
       CODE:102c 41              ??         41h    A
       CODE:102d 41              ??         41h    A
       CODE:102e 41              ??         41h    A
       CODE:102f 41              ??         41h    A
       CODE:1030 41              ??         41h    A
       CODE:1031 41              ??         41h    A
       CODE:1032 41              ??         41h    A
       CODE:1033 41              ??         41h    A
       CODE:1034 41              ??         41h    A
       CODE:1035 41              ??         41h    A
       CODE:1036 41              ??         41h    A
       CODE:1037 41              ??         41h    A
       CODE:1038 41              ??         41h    A
       CODE:1039 41              ??         41h    A
       CODE:103a 41              ??         41h    A
       CODE:103b 41              ??         41h    A
       CODE:103c 41              ??         41h    A
       CODE:103d 41              ??         41h    A
       CODE:103e 41              ??         41h    A
       CODE:103f 41              ??         41h    A
       CODE:1040 41              ??         41h    A
       CODE:1041 41              ??         41h    A
       CODE:1042 41              ??         41h    A
       CODE:1043 41              ??         41h    A
       CODE:1044 41              ??         41h    A
       CODE:1045 41              ??         41h    A
       CODE:1046 41              ??         41h    A
       CODE:1047 41              ??         41h    A
       CODE:1048 41              ??         41h    A
       CODE:1049 41              ??         41h    A
       CODE:104a 41              ??         41h    A
       CODE:104b 41              ??         41h    A
       CODE:104c 41              ??         41h    A
       CODE:104d 41              ??         41h    A
       CODE:104e 41              ??         41h    A
       CODE:104f 41              ??         41h    A
       CODE:1050 41              ??         41h    A
       CODE:1051 41              ??         41h    A
       CODE:1052 41              ??         41h    A
       CODE:1053 41              ??         41h    A
       CODE:1054 41              ??         41h    A
       CODE:1055 41              ??         41h    A
       CODE:1056 41              ??         41h    A
       CODE:1057 41              ??         41h    A
       CODE:1058 41              ??         41h    A
       CODE:1059 41              ??         41h    A
       CODE:105a 41              ??         41h    A
       CODE:105b 41              ??         41h    A
       CODE:105c 41              ??         41h    A
       CODE:105d 41              ??         41h    A
       CODE:105e 41              ??         41h    A
       CODE:105f 41              ??         41h    A
       CODE:1060 41              ??         41h    A
       CODE:1061 41              ??         41h    A
       CODE:1062 41              ??         41h    A
       CODE:1063 41              ??         41h    A
       CODE:1064 41              ??         41h    A
       CODE:1065 41              ??         41h    A
       CODE:1066 41              ??         41h    A
       CODE:1067 41              ??         41h    A
       CODE:1068 41              ??         41h    A
       CODE:1069 41              ??         41h    A
       CODE:106a 41              ??         41h    A
       CODE:106b 41              ??         41h    A
       CODE:106c 41              ??         41h    A
       CODE:106d 41              ??         41h    A
       CODE:106e 41              ??         41h    A
       CODE:106f 41              ??         41h    A
       CODE:1070 41              ??         41h    A
       CODE:1071 41              ??         41h    A
       CODE:1072 41              ??         41h    A
       CODE:1073 41              ??         41h    A
       CODE:1074 41              ??         41h    A
       CODE:1075 41              ??         41h    A
       CODE:1076 41              ??         41h    A
       CODE:1077 41              ??         41h    A
       CODE:1078 41              ??         41h    A
       CODE:1079 41              ??         41h    A
       CODE:107a 41              ??         41h    A
       CODE:107b 41              ??         41h    A
       CODE:107c 41              ??         41h    A
       CODE:107d 41              ??         41h    A
       CODE:107e 41              ??         41h    A
       CODE:107f 41              ??         41h    A
       CODE:1080 41              ??         41h    A
       CODE:1081 41              ??         41h    A
       CODE:1082 41              ??         41h    A
       CODE:1083 41              ??         41h    A
       CODE:1084 41              ??         41h    A
       CODE:1085 41              ??         41h    A
       CODE:1086 41              ??         41h    A
       CODE:1087 41              ??         41h    A
       CODE:1088 41              ??         41h    A
       CODE:1089 41              ??         41h    A
       CODE:108a 41              ??         41h    A
       CODE:108b 41              ??         41h    A
       CODE:108c 41              ??         41h    A
       CODE:108d 41              ??         41h    A
       CODE:108e 41              ??         41h    A
       CODE:108f 41              ??         41h    A
       CODE:1090 41              ??         41h    A
       CODE:1091 41              ??         41h    A
       CODE:1092 41              ??         41h    A
       CODE:1093 41              ??         41h    A
       CODE:1094 41              ??         41h    A
       CODE:1095 41              ??         41h    A
       CODE:1096 41              ??         41h    A
       CODE:1097 41              ??         41h    A
       CODE:1098 41              ??         41h    A
       CODE:1099 41              ??         41h    A
       CODE:109a 41              ??         41h    A
       CODE:109b 41              ??         41h    A
       CODE:109c 41              ??         41h    A
       CODE:109d 41              ??         41h    A
       CODE:109e 41              ??         41h    A
       CODE:109f 41              ??         41h    A
       CODE:10a0 41              ??         41h    A
       CODE:10a1 41              ??         41h    A
       CODE:10a2 41              ??         41h    A
       CODE:10a3 41              ??         41h    A
       CODE:10a4 41              ??         41h    A
       CODE:10a5 41              ??         41h    A
       CODE:10a6 41              ??         41h    A
       CODE:10a7 41              ??         41h    A
       CODE:10a8 41              ??         41h    A
       CODE:10a9 41              ??         41h    A
       CODE:10aa 41              ??         41h    A
       CODE:10ab 41              ??         41h    A
       CODE:10ac 41              ??         41h    A
       CODE:10ad 41              ??         41h    A
       CODE:10ae 41              ??         41h    A
       CODE:10af 41              ??         41h    A
       CODE:10b0 41              ??         41h    A
       CODE:10b1 41              ??         41h    A
       CODE:10b2 41              ??         41h    A
       CODE:10b3 41              ??         41h    A
       CODE:10b4 41              ??         41h    A
       CODE:10b5 41              ??         41h    A
       CODE:10b6 41              ??         41h    A
       CODE:10b7 41              ??         41h    A
       CODE:10b8 41              ??         41h    A
       CODE:10b9 41              ??         41h    A
       CODE:10ba 41              ??         41h    A
       CODE:10bb 41              ??         41h    A
       CODE:10bc 41              ??         41h    A
       CODE:10bd 41              ??         41h    A
       CODE:10be 41              ??         41h    A
       CODE:10bf 41              ??         41h    A
       CODE:10c0 41              ??         41h    A
       CODE:10c1 41              ??         41h    A
       CODE:10c2 41              ??         41h    A
       CODE:10c3 41              ??         41h    A
       CODE:10c4 41              ??         41h    A
       CODE:10c5 41              ??         41h    A
       CODE:10c6 41              ??         41h    A
       CODE:10c7 41              ??         41h    A
       CODE:10c8 41              ??         41h    A
       CODE:10c9 41              ??         41h    A
       CODE:10ca 41              ??         41h    A
       CODE:10cb 41              ??         41h    A
       CODE:10cc 41              ??         41h    A
       CODE:10cd 41              ??         41h    A
       CODE:10ce 41              ??         41h    A
       CODE:10cf 41              ??         41h    A
       CODE:10d0 41              ??         41h    A
       CODE:10d1 41              ??         41h    A
       CODE:10d2 41              ??         41h    A
       CODE:10d3 41              ??         41h    A
       CODE:10d4 41              ??         41h    A
       CODE:10d5 41              ??         41h    A
       CODE:10d6 41              ??         41h    A
       CODE:10d7 41              ??         41h    A
       CODE:10d8 41              ??         41h    A
       CODE:10d9 41              ??         41h    A
       CODE:10da 41              ??         41h    A
       CODE:10db 41              ??         41h    A
       CODE:10dc 41              ??         41h    A
       CODE:10dd 41              ??         41h    A
       CODE:10de 41              ??         41h    A
       CODE:10df 41              ??         41h    A
       CODE:10e0 41              ??         41h    A
       CODE:10e1 41              ??         41h    A
       CODE:10e2 41              ??         41h    A
       CODE:10e3 41              ??         41h    A
       CODE:10e4 41              ??         41h    A
       CODE:10e5 41              ??         41h    A
       CODE:10e6 41              ??         41h    A
       CODE:10e7 41              ??         41h    A
       CODE:10e8 41              ??         41h    A
       CODE:10e9 41              ??         41h    A
       CODE:10ea 41              ??         41h    A
       CODE:10eb 41              ??         41h    A
       CODE:10ec 41              ??         41h    A
       CODE:10ed 41              ??         41h    A
       CODE:10ee 41              ??         41h    A
       CODE:10ef 41              ??         41h    A
       CODE:10f0 41              ??         41h    A
       CODE:10f1 41              ??         41h    A
       CODE:10f2 41              ??         41h    A
       CODE:10f3 41              ??         41h    A
       CODE:10f4 41              ??         41h    A
       CODE:10f5 41              ??         41h    A
       CODE:10f6 41              ??         41h    A
       CODE:10f7 41              ??         41h    A
       CODE:10f8 41              ??         41h    A
       CODE:10f9 41              ??         41h    A
       CODE:10fa 41              ??         41h    A
       CODE:10fb 41              ??         41h    A
       CODE:10fc 41              ??         41h    A
       CODE:10fd 41              ??         41h    A
       CODE:10fe 41              ??         41h    A
       CODE:10ff 41              ??         41h    A
       CODE:1100 41              ??         41h    A
       CODE:1101 41              ??         41h    A
       CODE:1102 41              ??         41h    A
       CODE:1103 41              ??         41h    A
       CODE:1104 41              ??         41h    A
       CODE:1105 41              ??         41h    A
       CODE:1106 41              ??         41h    A
       CODE:1107 41              ??         41h    A
       CODE:1108 41              ??         41h    A
       CODE:1109 41              ??         41h    A
       CODE:110a 41              ??         41h    A
       CODE:110b 41              ??         41h    A
       CODE:110c 41              ??         41h    A
       CODE:110d 41              ??         41h    A
       CODE:110e 41              ??         41h    A
       CODE:110f 41              ??         41h    A
       CODE:1110 41              ??         41h    A
       CODE:1111 41              ??         41h    A
       CODE:1112 41              ??         41h    A
       CODE:1113 41              ??         41h    A
       CODE:1114 41              ??         41h    A
       CODE:1115 41              ??         41h    A
       CODE:1116 41              ??         41h    A
       CODE:1117 41              ??         41h    A
       CODE:1118 41              ??         41h    A
       CODE:1119 41              ??         41h    A
       CODE:111a 41              ??         41h    A
       CODE:111b 41              ??         41h    A
       CODE:111c 41              ??         41h    A
       CODE:111d 41              ??         41h    A
       CODE:111e 41              ??         41h    A
       CODE:111f 41              ??         41h    A
       CODE:1120 41              ??         41h    A
       CODE:1121 41              ??         41h    A
       CODE:1122 41              ??         41h    A
       CODE:1123 41              ??         41h    A
       CODE:1124 41              ??         41h    A
       CODE:1125 41              ??         41h    A
       CODE:1126 41              ??         41h    A
       CODE:1127 41              ??         41h    A
       CODE:1128 41              ??         41h    A
       CODE:1129 41              ??         41h    A
       CODE:112a 41              ??         41h    A
       CODE:112b 41              ??         41h    A
       CODE:112c 41              ??         41h    A
       CODE:112d 41              ??         41h    A
       CODE:112e 41              ??         41h    A
       CODE:112f 41              ??         41h    A
       CODE:1130 41              ??         41h    A
       CODE:1131 41              ??         41h    A
       CODE:1132 41              ??         41h    A
       CODE:1133 41              ??         41h    A
       CODE:1134 41              ??         41h    A
       CODE:1135 41              ??         41h    A
       CODE:1136 41              ??         41h    A
       CODE:1137 41              ??         41h    A
       CODE:1138 41              ??         41h    A
       CODE:1139 41              ??         41h    A
       CODE:113a 41              ??         41h    A
       CODE:113b 41              ??         41h    A
       CODE:113c 41              ??         41h    A
       CODE:113d 41              ??         41h    A
       CODE:113e 41              ??         41h    A
       CODE:113f 41              ??         41h    A
       CODE:1140 41              ??         41h    A
       CODE:1141 41              ??         41h    A
       CODE:1142 41              ??         41h    A
       CODE:1143 41              ??         41h    A
       CODE:1144 41              ??         41h    A
       CODE:1145 41              ??         41h    A
       CODE:1146 41              ??         41h    A
       CODE:1147 41              ??         41h    A
       CODE:1148 41              ??         41h    A
       CODE:1149 41              ??         41h    A
       CODE:114a 41              ??         41h    A
       CODE:114b 41              ??         41h    A
       CODE:114c 41              ??         41h    A
       CODE:114d 41              ??         41h    A
       CODE:114e 41              ??         41h    A
       CODE:114f 41              ??         41h    A
       CODE:1150 41              ??         41h    A
       CODE:1151 41              ??         41h    A
       CODE:1152 41              ??         41h    A
       CODE:1153 41              ??         41h    A
       CODE:1154 41              ??         41h    A
       CODE:1155 41              ??         41h    A
       CODE:1156 41              ??         41h    A
       CODE:1157 41              ??         41h    A
       CODE:1158 41              ??         41h    A
       CODE:1159 41              ??         41h    A
       CODE:115a 41              ??         41h    A
       CODE:115b 41              ??         41h    A
       CODE:115c 41              ??         41h    A
       CODE:115d 41              ??         41h    A
       CODE:115e 41              ??         41h    A
       CODE:115f 41              ??         41h    A
       CODE:1160 41              ??         41h    A
       CODE:1161 41              ??         41h    A
       CODE:1162 41              ??         41h    A
       CODE:1163 41              ??         41h    A
       CODE:1164 41              ??         41h    A
       CODE:1165 41              ??         41h    A
       CODE:1166 41              ??         41h    A
       CODE:1167 41              ??         41h    A
       CODE:1168 41              ??         41h    A
       CODE:1169 41              ??         41h    A
       CODE:116a 41              ??         41h    A
       CODE:116b 41              ??         41h    A
       CODE:116c 41              ??         41h    A
       CODE:116d 41              ??         41h    A
       CODE:116e 41              ??         41h    A
       CODE:116f 41              ??         41h    A
       CODE:1170 41              ??         41h    A
       CODE:1171 41              ??         41h    A
       CODE:1172 41              ??         41h    A
       CODE:1173 41              ??         41h    A
       CODE:1174 41              ??         41h    A
       CODE:1175 41              ??         41h    A
       CODE:1176 41              ??         41h    A
       CODE:1177 41              ??         41h    A
       CODE:1178 41              ??         41h    A
       CODE:1179 41              ??         41h    A
       CODE:117a 41              ??         41h    A
       CODE:117b 41              ??         41h    A
       CODE:117c 41              ??         41h    A
       CODE:117d 41              ??         41h    A
       CODE:117e 41              ??         41h    A
       CODE:117f 41              ??         41h    A
       CODE:1180 41              ??         41h    A
       CODE:1181 41              ??         41h    A
       CODE:1182 41              ??         41h    A
       CODE:1183 41              ??         41h    A
       CODE:1184 41              ??         41h    A
       CODE:1185 41              ??         41h    A
       CODE:1186 41              ??         41h    A
       CODE:1187 41              ??         41h    A
       CODE:1188 41              ??         41h    A
       CODE:1189 41              ??         41h    A
       CODE:118a 41              ??         41h    A
       CODE:118b 41              ??         41h    A
       CODE:118c 41              ??         41h    A
       CODE:118d 41              ??         41h    A
       CODE:118e 41              ??         41h    A
       CODE:118f 41              ??         41h    A
       CODE:1190 41              ??         41h    A
       CODE:1191 41              ??         41h    A
       CODE:1192 41              ??         41h    A
       CODE:1193 41              ??         41h    A
       CODE:1194 41              ??         41h    A
       CODE:1195 41              ??         41h    A
       CODE:1196 41              ??         41h    A
       CODE:1197 41              ??         41h    A
       CODE:1198 41              ??         41h    A
       CODE:1199 41              ??         41h    A
       CODE:119a 41              ??         41h    A
       CODE:119b 41              ??         41h    A
       CODE:119c 41              ??         41h    A
       CODE:119d 41              ??         41h    A
       CODE:119e 41              ??         41h    A
       CODE:119f 41              ??         41h    A
       CODE:11a0 41              ??         41h    A
       CODE:11a1 41              ??         41h    A
       CODE:11a2 41              ??         41h    A
       CODE:11a3 41              ??         41h    A
       CODE:11a4 41              ??         41h    A
       CODE:11a5 41              ??         41h    A
       CODE:11a6 41              ??         41h    A
       CODE:11a7 41              ??         41h    A
       CODE:11a8 41              ??         41h    A
       CODE:11a9 41              ??         41h    A
       CODE:11aa 41              ??         41h    A
       CODE:11ab 41              ??         41h    A
       CODE:11ac 41              ??         41h    A
       CODE:11ad 41              ??         41h    A
       CODE:11ae 41              ??         41h    A
       CODE:11af 41              ??         41h    A
       CODE:11b0 41              ??         41h    A
       CODE:11b1 41              ??         41h    A
       CODE:11b2 41              ??         41h    A
       CODE:11b3 41              ??         41h    A
       CODE:11b4 41              ??         41h    A
       CODE:11b5 41              ??         41h    A
       CODE:11b6 41              ??         41h    A
       CODE:11b7 41              ??         41h    A
       CODE:11b8 41              ??         41h    A
       CODE:11b9 41              ??         41h    A
       CODE:11ba 41              ??         41h    A
       CODE:11bb 41              ??         41h    A
       CODE:11bc 41              ??         41h    A
       CODE:11bd 41              ??         41h    A
       CODE:11be 41              ??         41h    A
       CODE:11bf 41              ??         41h    A
       CODE:11c0 41              ??         41h    A
       CODE:11c1 41              ??         41h    A
       CODE:11c2 41              ??         41h    A
       CODE:11c3 41              ??         41h    A
       CODE:11c4 41              ??         41h    A
       CODE:11c5 41              ??         41h    A
       CODE:11c6 41              ??         41h    A
       CODE:11c7 41              ??         41h    A
       CODE:11c8 41              ??         41h    A
       CODE:11c9 41              ??         41h    A
       CODE:11ca 41              ??         41h    A
       CODE:11cb 41              ??         41h    A
       CODE:11cc 41              ??         41h    A
       CODE:11cd 41              ??         41h    A
       CODE:11ce 41              ??         41h    A
       CODE:11cf 41              ??         41h    A
       CODE:11d0 41              ??         41h    A
       CODE:11d1 41              ??         41h    A
       CODE:11d2 41              ??         41h    A
       CODE:11d3 41              ??         41h    A
       CODE:11d4 41              ??         41h    A
       CODE:11d5 41              ??         41h    A
       CODE:11d6 41              ??         41h    A
       CODE:11d7 41              ??         41h    A
       CODE:11d8 41              ??         41h    A
       CODE:11d9 41              ??         41h    A
       CODE:11da 41              ??         41h    A
       CODE:11db 41              ??         41h    A
       CODE:11dc 41              ??         41h    A
       CODE:11dd 41              ??         41h    A
       CODE:11de 41              ??         41h    A
       CODE:11df 41              ??         41h    A
       CODE:11e0 41              ??         41h    A
       CODE:11e1 41              ??         41h    A
       CODE:11e2 41              ??         41h    A
       CODE:11e3 41              ??         41h    A
       CODE:11e4 41              ??         41h    A
       CODE:11e5 41              ??         41h    A
       CODE:11e6 41              ??         41h    A
       CODE:11e7 41              ??         41h    A
       CODE:11e8 41              ??         41h    A
       CODE:11e9 41              ??         41h    A
       CODE:11ea 41              ??         41h    A
       CODE:11eb 41              ??         41h    A
       CODE:11ec 41              ??         41h    A
       CODE:11ed 41              ??         41h    A
       CODE:11ee 41              ??         41h    A
       CODE:11ef 41              ??         41h    A
       CODE:11f0 41              ??         41h    A
       CODE:11f1 41              ??         41h    A
       CODE:11f2 41              ??         41h    A
       CODE:11f3 41              ??         41h    A
       CODE:11f4 41              ??         41h    A
       CODE:11f5 41              ??         41h    A
       CODE:11f6 41              ??         41h    A
       CODE:11f7 41              ??         41h    A
       CODE:11f8 41              ??         41h    A
       CODE:11f9 41              ??         41h    A
       CODE:11fa 41              ??         41h    A
       CODE:11fb 41              ??         41h    A
       CODE:11fc 41              ??         41h    A
       CODE:11fd 41              ??         41h    A
       CODE:11fe 41              ??         41h    A
       CODE:11ff 41              ??         41h    A
       CODE:1200 41              ??         41h    A
       CODE:1201 41              ??         41h    A
       CODE:1202 41              ??         41h    A
       CODE:1203 41              ??         41h    A
       CODE:1204 41              ??         41h    A
       CODE:1205 41              ??         41h    A
       CODE:1206 41              ??         41h    A
       CODE:1207 41              ??         41h    A
       CODE:1208 41              ??         41h    A
       CODE:1209 41              ??         41h    A
       CODE:120a 41              ??         41h    A
       CODE:120b 41              ??         41h    A
       CODE:120c 41              ??         41h    A
       CODE:120d 41              ??         41h    A
       CODE:120e 41              ??         41h    A
       CODE:120f 41              ??         41h    A
       CODE:1210 41              ??         41h    A
       CODE:1211 41              ??         41h    A
       CODE:1212 41              ??         41h    A
       CODE:1213 41              ??         41h    A
       CODE:1214 41              ??         41h    A
       CODE:1215 41              ??         41h    A
       CODE:1216 41              ??         41h    A
       CODE:1217 41              ??         41h    A
       CODE:1218 41              ??         41h    A
       CODE:1219 41              ??         41h    A
       CODE:121a 41              ??         41h    A
       CODE:121b 41              ??         41h    A
       CODE:121c 41              ??         41h    A
       CODE:121d 41              ??         41h    A
       CODE:121e 41              ??         41h    A
       CODE:121f 41              ??         41h    A
       CODE:1220 41              ??         41h    A
       CODE:1221 41              ??         41h    A
       CODE:1222 41              ??         41h    A
       CODE:1223 41              ??         41h    A
       CODE:1224 41              ??         41h    A
       CODE:1225 41              ??         41h    A
       CODE:1226 41              ??         41h    A
       CODE:1227 41              ??         41h    A
       CODE:1228 41              ??         41h    A
       CODE:1229 41              ??         41h    A
       CODE:122a 41              ??         41h    A
       CODE:122b 41              ??         41h    A
       CODE:122c 41              ??         41h    A
       CODE:122d 41              ??         41h    A
       CODE:122e 41              ??         41h    A
       CODE:122f 41              ??         41h    A
       CODE:1230 41              ??         41h    A
       CODE:1231 41              ??         41h    A
       CODE:1232 41              ??         41h    A
       CODE:1233 41              ??         41h    A
       CODE:1234 41              ??         41h    A
       CODE:1235 41              ??         41h    A
       CODE:1236 41              ??         41h    A
       CODE:1237 41              ??         41h    A
       CODE:1238 41              ??         41h    A
       CODE:1239 41              ??         41h    A
       CODE:123a 41              ??         41h    A
       CODE:123b 41              ??         41h    A
       CODE:123c 41              ??         41h    A
       CODE:123d 41              ??         41h    A
       CODE:123e 41              ??         41h    A
       CODE:123f 41              ??         41h    A
       CODE:1240 41              ??         41h    A
       CODE:1241 41              ??         41h    A
       CODE:1242 41              ??         41h    A
       CODE:1243 41              ??         41h    A
       CODE:1244 41              ??         41h    A
       CODE:1245 41              ??         41h    A
       CODE:1246 41              ??         41h    A
       CODE:1247 41              ??         41h    A
       CODE:1248 41              ??         41h    A
       CODE:1249 41              ??         41h    A
       CODE:124a 41              ??         41h    A
       CODE:124b 41              ??         41h    A
       CODE:124c 41              ??         41h    A
       CODE:124d 41              ??         41h    A
       CODE:124e 41              ??         41h    A
       CODE:124f 41              ??         41h    A
       CODE:1250 41              ??         41h    A
       CODE:1251 41              ??         41h    A
       CODE:1252 41              ??         41h    A
       CODE:1253 41              ??         41h    A
       CODE:1254 41              ??         41h    A
       CODE:1255 41              ??         41h    A
       CODE:1256 41              ??         41h    A
       CODE:1257 41              ??         41h    A
       CODE:1258 41              ??         41h    A
       CODE:1259 41              ??         41h    A
       CODE:125a 41              ??         41h    A
       CODE:125b 41              ??         41h    A
       CODE:125c 41              ??         41h    A
       CODE:125d 41              ??         41h    A
       CODE:125e 41              ??         41h    A
       CODE:125f 41              ??         41h    A
       CODE:1260 41              ??         41h    A
       CODE:1261 41              ??         41h    A
       CODE:1262 41              ??         41h    A
       CODE:1263 41              ??         41h    A
       CODE:1264 41              ??         41h    A
       CODE:1265 41              ??         41h    A
       CODE:1266 41              ??         41h    A
       CODE:1267 41              ??         41h    A
       CODE:1268 41              ??         41h    A
       CODE:1269 41              ??         41h    A
       CODE:126a 41              ??         41h    A
       CODE:126b 41              ??         41h    A
       CODE:126c 41              ??         41h    A
       CODE:126d 41              ??         41h    A
       CODE:126e 41              ??         41h    A
       CODE:126f 41              ??         41h    A
       CODE:1270 41              ??         41h    A
       CODE:1271 41              ??         41h    A
       CODE:1272 41              ??         41h    A
       CODE:1273 41              ??         41h    A
       CODE:1274 41              ??         41h    A
       CODE:1275 41              ??         41h    A
       CODE:1276 41              ??         41h    A
       CODE:1277 41              ??         41h    A
       CODE:1278 41              ??         41h    A
       CODE:1279 41              ??         41h    A
       CODE:127a 41              ??         41h    A
       CODE:127b 41              ??         41h    A
       CODE:127c 41              ??         41h    A
       CODE:127d 41              ??         41h    A
       CODE:127e 41              ??         41h    A
       CODE:127f 41              ??         41h    A
       CODE:1280 41              ??         41h    A
       CODE:1281 41              ??         41h    A
       CODE:1282 41              ??         41h    A
       CODE:1283 41              ??         41h    A
       CODE:1284 41              ??         41h    A
       CODE:1285 41              ??         41h    A
       CODE:1286 41              ??         41h    A
       CODE:1287 41              ??         41h    A
       CODE:1288 41              ??         41h    A
       CODE:1289 41              ??         41h    A
       CODE:128a 41              ??         41h    A
       CODE:128b 41              ??         41h    A
       CODE:128c 41              ??         41h    A
       CODE:128d 41              ??         41h    A
       CODE:128e 41              ??         41h    A
       CODE:128f 41              ??         41h    A
       CODE:1290 41              ??         41h    A
       CODE:1291 41              ??         41h    A
       CODE:1292 41              ??         41h    A
       CODE:1293 41              ??         41h    A
       CODE:1294 41              ??         41h    A
       CODE:1295 41              ??         41h    A
       CODE:1296 41              ??         41h    A
       CODE:1297 41              ??         41h    A
       CODE:1298 41              ??         41h    A
       CODE:1299 41              ??         41h    A
       CODE:129a 41              ??         41h    A
       CODE:129b 41              ??         41h    A
       CODE:129c 41              ??         41h    A
       CODE:129d 41              ??         41h    A
       CODE:129e 41              ??         41h    A
       CODE:129f 41              ??         41h    A
       CODE:12a0 41              ??         41h    A
       CODE:12a1 41              ??         41h    A
       CODE:12a2 41              ??         41h    A
       CODE:12a3 41              ??         41h    A
       CODE:12a4 41              ??         41h    A
       CODE:12a5 41              ??         41h    A
       CODE:12a6 41              ??         41h    A
       CODE:12a7 41              ??         41h    A
       CODE:12a8 41              ??         41h    A
       CODE:12a9 41              ??         41h    A
       CODE:12aa 41              ??         41h    A
       CODE:12ab 41              ??         41h    A
       CODE:12ac 41              ??         41h    A
       CODE:12ad 41              ??         41h    A
       CODE:12ae 41              ??         41h    A
       CODE:12af 41              ??         41h    A
       CODE:12b0 41              ??         41h    A
       CODE:12b1 41              ??         41h    A
       CODE:12b2 41              ??         41h    A
       CODE:12b3 41              ??         41h    A
       CODE:12b4 41              ??         41h    A
       CODE:12b5 41              ??         41h    A
       CODE:12b6 41              ??         41h    A
       CODE:12b7 41              ??         41h    A
       CODE:12b8 41              ??         41h    A
       CODE:12b9 41              ??         41h    A
       CODE:12ba 41              ??         41h    A
       CODE:12bb 41              ??         41h    A
       CODE:12bc 41              ??         41h    A
       CODE:12bd 41              ??         41h    A
       CODE:12be 41              ??         41h    A
       CODE:12bf 41              ??         41h    A
       CODE:12c0 41              ??         41h    A
       CODE:12c1 41              ??         41h    A
       CODE:12c2 41              ??         41h    A
       CODE:12c3 41              ??         41h    A
       CODE:12c4 41              ??         41h    A
       CODE:12c5 41              ??         41h    A
       CODE:12c6 41              ??         41h    A
       CODE:12c7 41              ??         41h    A
       CODE:12c8 41              ??         41h    A
       CODE:12c9 41              ??         41h    A
       CODE:12ca 41              ??         41h    A
       CODE:12cb 41              ??         41h    A
       CODE:12cc 41              ??         41h    A
       CODE:12cd 41              ??         41h    A
       CODE:12ce 41              ??         41h    A
       CODE:12cf 41              ??         41h    A
       CODE:12d0 41              ??         41h    A
       CODE:12d1 41              ??         41h    A
       CODE:12d2 41              ??         41h    A
       CODE:12d3 41              ??         41h    A
       CODE:12d4 41              ??         41h    A
       CODE:12d5 41              ??         41h    A
       CODE:12d6 41              ??         41h    A
       CODE:12d7 41              ??         41h    A
       CODE:12d8 41              ??         41h    A
       CODE:12d9 41              ??         41h    A
       CODE:12da 41              ??         41h    A
       CODE:12db 41              ??         41h    A
       CODE:12dc 41              ??         41h    A
       CODE:12dd 41              ??         41h    A
       CODE:12de 41              ??         41h    A
       CODE:12df 41              ??         41h    A
       CODE:12e0 41              ??         41h    A
       CODE:12e1 41              ??         41h    A
       CODE:12e2 41              ??         41h    A
       CODE:12e3 41              ??         41h    A
       CODE:12e4 41              ??         41h    A
       CODE:12e5 41              ??         41h    A
       CODE:12e6 41              ??         41h    A
       CODE:12e7 41              ??         41h    A
       CODE:12e8 41              ??         41h    A
       CODE:12e9 41              ??         41h    A
       CODE:12ea 41              ??         41h    A
       CODE:12eb 41              ??         41h    A
       CODE:12ec 41              ??         41h    A
       CODE:12ed 41              ??         41h    A
       CODE:12ee 41              ??         41h    A
       CODE:12ef 41              ??         41h    A
       CODE:12f0 41              ??         41h    A
       CODE:12f1 41              ??         41h    A
       CODE:12f2 41              ??         41h    A
       CODE:12f3 41              ??         41h    A
       CODE:12f4 41              ??         41h    A
       CODE:12f5 41              ??         41h    A
       CODE:12f6 41              ??         41h    A
       CODE:12f7 41              ??         41h    A
       CODE:12f8 41              ??         41h    A
       CODE:12f9 41              ??         41h    A
       CODE:12fa 41              ??         41h    A
       CODE:12fb 41              ??         41h    A
       CODE:12fc 41              ??         41h    A
       CODE:12fd 41              ??         41h    A
       CODE:12fe 41              ??         41h    A
       CODE:12ff 41              ??         41h    A
       CODE:1300 41              ??         41h    A
       CODE:1301 41              ??         41h    A
       CODE:1302 41              ??         41h    A
       CODE:1303 41              ??         41h    A
       CODE:1304 41              ??         41h    A
       CODE:1305 41              ??         41h    A
       CODE:1306 41              ??         41h    A
       CODE:1307 41              ??         41h    A
       CODE:1308 41              ??         41h    A
       CODE:1309 41              ??         41h    A
       CODE:130a 41              ??         41h    A
       CODE:130b 41              ??         41h    A
       CODE:130c 41              ??         41h    A
       CODE:130d 41              ??         41h    A
       CODE:130e 41              ??         41h    A
       CODE:130f 41              ??         41h    A
       CODE:1310 41              ??         41h    A
       CODE:1311 41              ??         41h    A
       CODE:1312 41              ??         41h    A
       CODE:1313 41              ??         41h    A
       CODE:1314 41              ??         41h    A
       CODE:1315 41              ??         41h    A
       CODE:1316 41              ??         41h    A
       CODE:1317 41              ??         41h    A
       CODE:1318 41              ??         41h    A
       CODE:1319 41              ??         41h    A
       CODE:131a 41              ??         41h    A
       CODE:131b 41              ??         41h    A
       CODE:131c 41              ??         41h    A
       CODE:131d 41              ??         41h    A
       CODE:131e 41              ??         41h    A
       CODE:131f 41              ??         41h    A
       CODE:1320 41              ??         41h    A
       CODE:1321 41              ??         41h    A
       CODE:1322 41              ??         41h    A
       CODE:1323 41              ??         41h    A
       CODE:1324 41              ??         41h    A
       CODE:1325 41              ??         41h    A
       CODE:1326 41              ??         41h    A
       CODE:1327 41              ??         41h    A
       CODE:1328 41              ??         41h    A
       CODE:1329 41              ??         41h    A
       CODE:132a 41              ??         41h    A
       CODE:132b 41              ??         41h    A
       CODE:132c 41              ??         41h    A
       CODE:132d 41              ??         41h    A
       CODE:132e 41              ??         41h    A
       CODE:132f 41              ??         41h    A
       CODE:1330 41              ??         41h    A
       CODE:1331 41              ??         41h    A
       CODE:1332 41              ??         41h    A
       CODE:1333 41              ??         41h    A
       CODE:1334 41              ??         41h    A
       CODE:1335 41              ??         41h    A
       CODE:1336 41              ??         41h    A
       CODE:1337 41              ??         41h    A
       CODE:1338 41              ??         41h    A
       CODE:1339 41              ??         41h    A
       CODE:133a 41              ??         41h    A
       CODE:133b 41              ??         41h    A
       CODE:133c 41              ??         41h    A
       CODE:133d 41              ??         41h    A
       CODE:133e 41              ??         41h    A
       CODE:133f 41              ??         41h    A
       CODE:1340 41              ??         41h    A
       CODE:1341 41              ??         41h    A
       CODE:1342 41              ??         41h    A
       CODE:1343 41              ??         41h    A
       CODE:1344 41              ??         41h    A
       CODE:1345 41              ??         41h    A
       CODE:1346 41              ??         41h    A
       CODE:1347 41              ??         41h    A
       CODE:1348 41              ??         41h    A
       CODE:1349 41              ??         41h    A
       CODE:134a 41              ??         41h    A
       CODE:134b 41              ??         41h    A
       CODE:134c 41              ??         41h    A
       CODE:134d 41              ??         41h    A
       CODE:134e 41              ??         41h    A
       CODE:134f 41              ??         41h    A
       CODE:1350 41              ??         41h    A
       CODE:1351 41              ??         41h    A
       CODE:1352 41              ??         41h    A
       CODE:1353 41              ??         41h    A
       CODE:1354 41              ??         41h    A
       CODE:1355 41              ??         41h    A
       CODE:1356 41              ??         41h    A
       CODE:1357 41              ??         41h    A
       CODE:1358 41              ??         41h    A
       CODE:1359 41              ??         41h    A
       CODE:135a 41              ??         41h    A
       CODE:135b 41              ??         41h    A
       CODE:135c 41              ??         41h    A
       CODE:135d 41              ??         41h    A
       CODE:135e 41              ??         41h    A
       CODE:135f 41              ??         41h    A
       CODE:1360 41              ??         41h    A
       CODE:1361 41              ??         41h    A
       CODE:1362 41              ??         41h    A
       CODE:1363 41              ??         41h    A
       CODE:1364 41              ??         41h    A
       CODE:1365 41              ??         41h    A
       CODE:1366 41              ??         41h    A
       CODE:1367 41              ??         41h    A
       CODE:1368 41              ??         41h    A
       CODE:1369 41              ??         41h    A
       CODE:136a 41              ??         41h    A
       CODE:136b 41              ??         41h    A
       CODE:136c 41              ??         41h    A
       CODE:136d 41              ??         41h    A
       CODE:136e 41              ??         41h    A
       CODE:136f 41              ??         41h    A
       CODE:1370 41              ??         41h    A
       CODE:1371 41              ??         41h    A
       CODE:1372 41              ??         41h    A
       CODE:1373 41              ??         41h    A
       CODE:1374 41              ??         41h    A
       CODE:1375 41              ??         41h    A
       CODE:1376 41              ??         41h    A
       CODE:1377 41              ??         41h    A
       CODE:1378 41              ??         41h    A
       CODE:1379 41              ??         41h    A
       CODE:137a 41              ??         41h    A
       CODE:137b 41              ??         41h    A
       CODE:137c 41              ??         41h    A
       CODE:137d 41              ??         41h    A
       CODE:137e 41              ??         41h    A
       CODE:137f 41              ??         41h    A
       CODE:1380 41              ??         41h    A
       CODE:1381 41              ??         41h    A
       CODE:1382 41              ??         41h    A
       CODE:1383 41              ??         41h    A
       CODE:1384 41              ??         41h    A
       CODE:1385 41              ??         41h    A
       CODE:1386 41              ??         41h    A
       CODE:1387 41              ??         41h    A
       CODE:1388 41              ??         41h    A
       CODE:1389 41              ??         41h    A
       CODE:138a 41              ??         41h    A
       CODE:138b 41              ??         41h    A
       CODE:138c 41              ??         41h    A
       CODE:138d 41              ??         41h    A
       CODE:138e 41              ??         41h    A
       CODE:138f 41              ??         41h    A
       CODE:1390 41              ??         41h    A
       CODE:1391 41              ??         41h    A
       CODE:1392 41              ??         41h    A
       CODE:1393 41              ??         41h    A
       CODE:1394 41              ??         41h    A
       CODE:1395 41              ??         41h    A
       CODE:1396 41              ??         41h    A
       CODE:1397 41              ??         41h    A
       CODE:1398 41              ??         41h    A
       CODE:1399 41              ??         41h    A
       CODE:139a 41              ??         41h    A
       CODE:139b 41              ??         41h    A
       CODE:139c 41              ??         41h    A
       CODE:139d 41              ??         41h    A
       CODE:139e 41              ??         41h    A
       CODE:139f 41              ??         41h    A
       CODE:13a0 41              ??         41h    A
       CODE:13a1 41              ??         41h    A
       CODE:13a2 41              ??         41h    A
       CODE:13a3 41              ??         41h    A
       CODE:13a4 41              ??         41h    A
       CODE:13a5 41              ??         41h    A
       CODE:13a6 41              ??         41h    A
       CODE:13a7 41              ??         41h    A
       CODE:13a8 41              ??         41h    A
       CODE:13a9 41              ??         41h    A
       CODE:13aa 41              ??         41h    A
       CODE:13ab 41              ??         41h    A
       CODE:13ac 41              ??         41h    A
       CODE:13ad 41              ??         41h    A
       CODE:13ae 41              ??         41h    A
       CODE:13af 41              ??         41h    A
       CODE:13b0 41              ??         41h    A
       CODE:13b1 41              ??         41h    A
       CODE:13b2 41              ??         41h    A
       CODE:13b3 41              ??         41h    A
       CODE:13b4 41              ??         41h    A
       CODE:13b5 41              ??         41h    A
       CODE:13b6 41              ??         41h    A
       CODE:13b7 41              ??         41h    A
       CODE:13b8 41              ??         41h    A
       CODE:13b9 41              ??         41h    A
       CODE:13ba 41              ??         41h    A
       CODE:13bb 41              ??         41h    A
       CODE:13bc 41              ??         41h    A
       CODE:13bd 41              ??         41h    A
       CODE:13be 41              ??         41h    A
       CODE:13bf 41              ??         41h    A
       CODE:13c0 41              ??         41h    A
       CODE:13c1 41              ??         41h    A
       CODE:13c2 41              ??         41h    A
       CODE:13c3 41              ??         41h    A
       CODE:13c4 41              ??         41h    A
       CODE:13c5 41              ??         41h    A
       CODE:13c6 41              ??         41h    A
       CODE:13c7 41              ??         41h    A
       CODE:13c8 41              ??         41h    A
       CODE:13c9 41              ??         41h    A
       CODE:13ca 41              ??         41h    A
       CODE:13cb 41              ??         41h    A
       CODE:13cc 41              ??         41h    A
       CODE:13cd 41              ??         41h    A
       CODE:13ce 41              ??         41h    A
       CODE:13cf 41              ??         41h    A
       CODE:13d0 41              ??         41h    A
       CODE:13d1 41              ??         41h    A
       CODE:13d2 41              ??         41h    A
       CODE:13d3 41              ??         41h    A
       CODE:13d4 41              ??         41h    A
       CODE:13d5 41              ??         41h    A
       CODE:13d6 41              ??         41h    A
       CODE:13d7 41              ??         41h    A
       CODE:13d8 41              ??         41h    A
       CODE:13d9 41              ??         41h    A
       CODE:13da 41              ??         41h    A
       CODE:13db 41              ??         41h    A
       CODE:13dc 41              ??         41h    A
       CODE:13dd 41              ??         41h    A
       CODE:13de 41              ??         41h    A
       CODE:13df 41              ??         41h    A
       CODE:13e0 41              ??         41h    A
       CODE:13e1 41              ??         41h    A
       CODE:13e2 41              ??         41h    A
       CODE:13e3 41              ??         41h    A
       CODE:13e4 41              ??         41h    A
       CODE:13e5 41              ??         41h    A
       CODE:13e6 41              ??         41h    A
       CODE:13e7 41              ??         41h    A
       CODE:13e8 41              ??         41h    A
       CODE:13e9 41              ??         41h    A
       CODE:13ea 41              ??         41h    A
       CODE:13eb 41              ??         41h    A
       CODE:13ec 41              ??         41h    A
       CODE:13ed 41              ??         41h    A
       CODE:13ee 41              ??         41h    A
       CODE:13ef 41              ??         41h    A
       CODE:13f0 41              ??         41h    A
       CODE:13f1 41              ??         41h    A
       CODE:13f2 41              ??         41h    A
       CODE:13f3 41              ??         41h    A
       CODE:13f4 41              ??         41h    A
       CODE:13f5 41              ??         41h    A
       CODE:13f6 41              ??         41h    A
       CODE:13f7 41              ??         41h    A
       CODE:13f8 41              ??         41h    A
       CODE:13f9 41              ??         41h    A
       CODE:13fa 41              ??         41h    A
       CODE:13fb 41              ??         41h    A
       CODE:13fc 41              ??         41h    A
       CODE:13fd 41              ??         41h    A
       CODE:13fe 41              ??         41h    A
       CODE:13ff 41              ??         41h    A
       CODE:1400 41              ??         41h    A
       CODE:1401 41              ??         41h    A
       CODE:1402 41              ??         41h    A
       CODE:1403 41              ??         41h    A
       CODE:1404 41              ??         41h    A
       CODE:1405 41              ??         41h    A
       CODE:1406 41              ??         41h    A
       CODE:1407 41              ??         41h    A
       CODE:1408 41              ??         41h    A
       CODE:1409 41              ??         41h    A
       CODE:140a 41              ??         41h    A
       CODE:140b 41              ??         41h    A
       CODE:140c 41              ??         41h    A
       CODE:140d 41              ??         41h    A
       CODE:140e 41              ??         41h    A
       CODE:140f 41              ??         41h    A
       CODE:1410 41              ??         41h    A
       CODE:1411 41              ??         41h    A
       CODE:1412 41              ??         41h    A
       CODE:1413 41              ??         41h    A
       CODE:1414 41              ??         41h    A
       CODE:1415 41              ??         41h    A
       CODE:1416 41              ??         41h    A
       CODE:1417 41              ??         41h    A
       CODE:1418 41              ??         41h    A
       CODE:1419 41              ??         41h    A
       CODE:141a 41              ??         41h    A
       CODE:141b 41              ??         41h    A
       CODE:141c 41              ??         41h    A
       CODE:141d 41              ??         41h    A
       CODE:141e 41              ??         41h    A
       CODE:141f 41              ??         41h    A
       CODE:1420 41              ??         41h    A
       CODE:1421 41              ??         41h    A
       CODE:1422 41              ??         41h    A
       CODE:1423 41              ??         41h    A
       CODE:1424 41              ??         41h    A
       CODE:1425 41              ??         41h    A
       CODE:1426 41              ??         41h    A
       CODE:1427 41              ??         41h    A
       CODE:1428 41              ??         41h    A
       CODE:1429 41              ??         41h    A
       CODE:142a 41              ??         41h    A
       CODE:142b 41              ??         41h    A
       CODE:142c 41              ??         41h    A
       CODE:142d 41              ??         41h    A
       CODE:142e 41              ??         41h    A
       CODE:142f 41              ??         41h    A
       CODE:1430 41              ??         41h    A
       CODE:1431 41              ??         41h    A
       CODE:1432 41              ??         41h    A
       CODE:1433 41              ??         41h    A
       CODE:1434 41              ??         41h    A
       CODE:1435 41              ??         41h    A
       CODE:1436 41              ??         41h    A
       CODE:1437 41              ??         41h    A
       CODE:1438 41              ??         41h    A
       CODE:1439 41              ??         41h    A
       CODE:143a 41              ??         41h    A
       CODE:143b 41              ??         41h    A
       CODE:143c 41              ??         41h    A
       CODE:143d 41              ??         41h    A
       CODE:143e 41              ??         41h    A
       CODE:143f 41              ??         41h    A
       CODE:1440 41              ??         41h    A
       CODE:1441 41              ??         41h    A
       CODE:1442 41              ??         41h    A
       CODE:1443 41              ??         41h    A
       CODE:1444 41              ??         41h    A
       CODE:1445 41              ??         41h    A
       CODE:1446 41              ??         41h    A
       CODE:1447 41              ??         41h    A
       CODE:1448 41              ??         41h    A
       CODE:1449 41              ??         41h    A
       CODE:144a 41              ??         41h    A
       CODE:144b 41              ??         41h    A
       CODE:144c 41              ??         41h    A
       CODE:144d 41              ??         41h    A
       CODE:144e 41              ??         41h    A
       CODE:144f 41              ??         41h    A
       CODE:1450 41              ??         41h    A
       CODE:1451 41              ??         41h    A
       CODE:1452 41              ??         41h    A
       CODE:1453 41              ??         41h    A
       CODE:1454 41              ??         41h    A
       CODE:1455 41              ??         41h    A
       CODE:1456 41              ??         41h    A
       CODE:1457 41              ??         41h    A
       CODE:1458 41              ??         41h    A
       CODE:1459 41              ??         41h    A
       CODE:145a 41              ??         41h    A
       CODE:145b 41              ??         41h    A
       CODE:145c 41              ??         41h    A
       CODE:145d 41              ??         41h    A
       CODE:145e 41              ??         41h    A
       CODE:145f 41              ??         41h    A
       CODE:1460 41              ??         41h    A
       CODE:1461 41              ??         41h    A
       CODE:1462 41              ??         41h    A
       CODE:1463 41              ??         41h    A
       CODE:1464 41              ??         41h    A
       CODE:1465 41              ??         41h    A
       CODE:1466 41              ??         41h    A
       CODE:1467 41              ??         41h    A
       CODE:1468 41              ??         41h    A
       CODE:1469 41              ??         41h    A
       CODE:146a 41              ??         41h    A
       CODE:146b 41              ??         41h    A
       CODE:146c 41              ??         41h    A
       CODE:146d 41              ??         41h    A
       CODE:146e 41              ??         41h    A
       CODE:146f 41              ??         41h    A
       CODE:1470 41              ??         41h    A
       CODE:1471 41              ??         41h    A
       CODE:1472 41              ??         41h    A
       CODE:1473 41              ??         41h    A
       CODE:1474 41              ??         41h    A
       CODE:1475 41              ??         41h    A
       CODE:1476 41              ??         41h    A
       CODE:1477 41              ??         41h    A
       CODE:1478 41              ??         41h    A
       CODE:1479 41              ??         41h    A
       CODE:147a 41              ??         41h    A
       CODE:147b 41              ??         41h    A
       CODE:147c 41              ??         41h    A
       CODE:147d 41              ??         41h    A
       CODE:147e 41              ??         41h    A
       CODE:147f 41              ??         41h    A
       CODE:1480 41              ??         41h    A
       CODE:1481 41              ??         41h    A
       CODE:1482 41              ??         41h    A
       CODE:1483 41              ??         41h    A
       CODE:1484 41              ??         41h    A
       CODE:1485 41              ??         41h    A
       CODE:1486 41              ??         41h    A
       CODE:1487 41              ??         41h    A
       CODE:1488 41              ??         41h    A
       CODE:1489 41              ??         41h    A
       CODE:148a 41              ??         41h    A
       CODE:148b 41              ??         41h    A
       CODE:148c 41              ??         41h    A
       CODE:148d 41              ??         41h    A
       CODE:148e 41              ??         41h    A
       CODE:148f 41              ??         41h    A
       CODE:1490 41              ??         41h    A
       CODE:1491 41              ??         41h    A
       CODE:1492 41              ??         41h    A
       CODE:1493 41              ??         41h    A
       CODE:1494 41              ??         41h    A
       CODE:1495 41              ??         41h    A
       CODE:1496 41              ??         41h    A
       CODE:1497 41              ??         41h    A
       CODE:1498 41              ??         41h    A
       CODE:1499 41              ??         41h    A
       CODE:149a 41              ??         41h    A
       CODE:149b 41              ??         41h    A
       CODE:149c 41              ??         41h    A
       CODE:149d 41              ??         41h    A
       CODE:149e 41              ??         41h    A
       CODE:149f 41              ??         41h    A
       CODE:14a0 41              ??         41h    A
       CODE:14a1 41              ??         41h    A
       CODE:14a2 41              ??         41h    A
       CODE:14a3 41              ??         41h    A
       CODE:14a4 41              ??         41h    A
       CODE:14a5 41              ??         41h    A
       CODE:14a6 41              ??         41h    A
       CODE:14a7 41              ??         41h    A
       CODE:14a8 41              ??         41h    A
       CODE:14a9 41              ??         41h    A
       CODE:14aa 41              ??         41h    A
       CODE:14ab 41              ??         41h    A
       CODE:14ac 41              ??         41h    A
       CODE:14ad 41              ??         41h    A
       CODE:14ae 41              ??         41h    A
       CODE:14af 41              ??         41h    A
       CODE:14b0 41              ??         41h    A
       CODE:14b1 41              ??         41h    A
       CODE:14b2 41              ??         41h    A
       CODE:14b3 41              ??         41h    A
       CODE:14b4 41              ??         41h    A
       CODE:14b5 41              ??         41h    A
       CODE:14b6 41              ??         41h    A
       CODE:14b7 41              ??         41h    A
       CODE:14b8 41              ??         41h    A
       CODE:14b9 41              ??         41h    A
       CODE:14ba 41              ??         41h    A
       CODE:14bb 41              ??         41h    A
       CODE:14bc 41              ??         41h    A
       CODE:14bd 41              ??         41h    A
       CODE:14be 41              ??         41h    A
       CODE:14bf 41              ??         41h    A
       CODE:14c0 41              ??         41h    A
       CODE:14c1 41              ??         41h    A
       CODE:14c2 41              ??         41h    A
       CODE:14c3 41              ??         41h    A
       CODE:14c4 41              ??         41h    A
       CODE:14c5 41              ??         41h    A
       CODE:14c6 41              ??         41h    A
       CODE:14c7 41              ??         41h    A
       CODE:14c8 41              ??         41h    A
       CODE:14c9 41              ??         41h    A
       CODE:14ca 41              ??         41h    A
       CODE:14cb 41              ??         41h    A
       CODE:14cc 41              ??         41h    A
       CODE:14cd 41              ??         41h    A
       CODE:14ce 41              ??         41h    A
       CODE:14cf 41              ??         41h    A
       CODE:14d0 41              ??         41h    A
       CODE:14d1 41              ??         41h    A
       CODE:14d2 41              ??         41h    A
       CODE:14d3 41              ??         41h    A
       CODE:14d4 41              ??         41h    A
       CODE:14d5 41              ??         41h    A
       CODE:14d6 41              ??         41h    A
       CODE:14d7 41              ??         41h    A
       CODE:14d8 41              ??         41h    A
       CODE:14d9 41              ??         41h    A
       CODE:14da 41              ??         41h    A
       CODE:14db 41              ??         41h    A
       CODE:14dc 41              ??         41h    A
       CODE:14dd 41              ??         41h    A
       CODE:14de 41              ??         41h    A
       CODE:14df 41              ??         41h    A
       CODE:14e0 41              ??         41h    A
       CODE:14e1 41              ??         41h    A
       CODE:14e2 41              ??         41h    A
       CODE:14e3 41              ??         41h    A
       CODE:14e4 41              ??         41h    A
       CODE:14e5 41              ??         41h    A
       CODE:14e6 41              ??         41h    A
       CODE:14e7 41              ??         41h    A
       CODE:14e8 41              ??         41h    A
       CODE:14e9 41              ??         41h    A
       CODE:14ea 41              ??         41h    A
       CODE:14eb 41              ??         41h    A
       CODE:14ec 41              ??         41h    A
       CODE:14ed 41              ??         41h    A
       CODE:14ee 41              ??         41h    A
       CODE:14ef 41              ??         41h    A
       CODE:14f0 41              ??         41h    A
       CODE:14f1 41              ??         41h    A
       CODE:14f2 41              ??         41h    A
       CODE:14f3 41              ??         41h    A
       CODE:14f4 41              ??         41h    A
       CODE:14f5 41              ??         41h    A
       CODE:14f6 41              ??         41h    A
       CODE:14f7 41              ??         41h    A
       CODE:14f8 41              ??         41h    A
       CODE:14f9 41              ??         41h    A
       CODE:14fa 41              ??         41h    A
       CODE:14fb 41              ??         41h    A
       CODE:14fc 41              ??         41h    A
       CODE:14fd 41              ??         41h    A
       CODE:14fe 41              ??         41h    A
       CODE:14ff 41              ??         41h    A
       CODE:1500 41              ??         41h    A
       CODE:1501 41              ??         41h    A
       CODE:1502 41              ??         41h    A
       CODE:1503 41              ??         41h    A
       CODE:1504 41              ??         41h    A
       CODE:1505 41              ??         41h    A
       CODE:1506 41              ??         41h    A
       CODE:1507 41              ??         41h    A
       CODE:1508 41              ??         41h    A
       CODE:1509 41              ??         41h    A
       CODE:150a 41              ??         41h    A
       CODE:150b 41              ??         41h    A
       CODE:150c 41              ??         41h    A
       CODE:150d 41              ??         41h    A
       CODE:150e 41              ??         41h    A
       CODE:150f 41              ??         41h    A
       CODE:1510 41              ??         41h    A
       CODE:1511 41              ??         41h    A
       CODE:1512 41              ??         41h    A
       CODE:1513 41              ??         41h    A
       CODE:1514 41              ??         41h    A
       CODE:1515 41              ??         41h    A
       CODE:1516 41              ??         41h    A
       CODE:1517 41              ??         41h    A
       CODE:1518 41              ??         41h    A
       CODE:1519 41              ??         41h    A
       CODE:151a 41              ??         41h    A
       CODE:151b 41              ??         41h    A
       CODE:151c 41              ??         41h    A
       CODE:151d 41              ??         41h    A
       CODE:151e 41              ??         41h    A
       CODE:151f 41              ??         41h    A
       CODE:1520 41              ??         41h    A
       CODE:1521 41              ??         41h    A
       CODE:1522 41              ??         41h    A
       CODE:1523 41              ??         41h    A
       CODE:1524 41              ??         41h    A
       CODE:1525 41              ??         41h    A
       CODE:1526 41              ??         41h    A
       CODE:1527 41              ??         41h    A
       CODE:1528 41              ??         41h    A
       CODE:1529 41              ??         41h    A
       CODE:152a 41              ??         41h    A
       CODE:152b 41              ??         41h    A
       CODE:152c 41              ??         41h    A
       CODE:152d 41              ??         41h    A
       CODE:152e 41              ??         41h    A
       CODE:152f 41              ??         41h    A
       CODE:1530 41              ??         41h    A
       CODE:1531 41              ??         41h    A
       CODE:1532 41              ??         41h    A
       CODE:1533 41              ??         41h    A
       CODE:1534 41              ??         41h    A
       CODE:1535 41              ??         41h    A
       CODE:1536 41              ??         41h    A
       CODE:1537 41              ??         41h    A
       CODE:1538 41              ??         41h    A
       CODE:1539 41              ??         41h    A
       CODE:153a 41              ??         41h    A
       CODE:153b 41              ??         41h    A
       CODE:153c 41              ??         41h    A
       CODE:153d 41              ??         41h    A
       CODE:153e 41              ??         41h    A
       CODE:153f 41              ??         41h    A
       CODE:1540 41              ??         41h    A
       CODE:1541 41              ??         41h    A
       CODE:1542 41              ??         41h    A
       CODE:1543 41              ??         41h    A
       CODE:1544 41              ??         41h    A
       CODE:1545 41              ??         41h    A
       CODE:1546 41              ??         41h    A
       CODE:1547 41              ??         41h    A
       CODE:1548 41              ??         41h    A
       CODE:1549 41              ??         41h    A
       CODE:154a 41              ??         41h    A
       CODE:154b 41              ??         41h    A
       CODE:154c 41              ??         41h    A
       CODE:154d 41              ??         41h    A
       CODE:154e 41              ??         41h    A
       CODE:154f 41              ??         41h    A
       CODE:1550 41              ??         41h    A
       CODE:1551 41              ??         41h    A
       CODE:1552 41              ??         41h    A
       CODE:1553 41              ??         41h    A
       CODE:1554 41              ??         41h    A
       CODE:1555 41              ??         41h    A
       CODE:1556 41              ??         41h    A
       CODE:1557 41              ??         41h    A
       CODE:1558 41              ??         41h    A
       CODE:1559 41              ??         41h    A
       CODE:155a 41              ??         41h    A
       CODE:155b 41              ??         41h    A
       CODE:155c 41              ??         41h    A
       CODE:155d 41              ??         41h    A
       CODE:155e 41              ??         41h    A
       CODE:155f 41              ??         41h    A
       CODE:1560 41              ??         41h    A
       CODE:1561 41              ??         41h    A
       CODE:1562 41              ??         41h    A
       CODE:1563 41              ??         41h    A
       CODE:1564 41              ??         41h    A
       CODE:1565 41              ??         41h    A
       CODE:1566 41              ??         41h    A
       CODE:1567 41              ??         41h    A
       CODE:1568 41              ??         41h    A
       CODE:1569 41              ??         41h    A
       CODE:156a 41              ??         41h    A
       CODE:156b 41              ??         41h    A
       CODE:156c 41              ??         41h    A
       CODE:156d 41              ??         41h    A
       CODE:156e 41              ??         41h    A
       CODE:156f 41              ??         41h    A
       CODE:1570 41              ??         41h    A
       CODE:1571 41              ??         41h    A
       CODE:1572 41              ??         41h    A
       CODE:1573 41              ??         41h    A
       CODE:1574 41              ??         41h    A
       CODE:1575 41              ??         41h    A
       CODE:1576 41              ??         41h    A
       CODE:1577 41              ??         41h    A
       CODE:1578 41              ??         41h    A
       CODE:1579 41              ??         41h    A
       CODE:157a 41              ??         41h    A
       CODE:157b 41              ??         41h    A
       CODE:157c 41              ??         41h    A
       CODE:157d 41              ??         41h    A
       CODE:157e 41              ??         41h    A
       CODE:157f 41              ??         41h    A
       CODE:1580 41              ??         41h    A
       CODE:1581 41              ??         41h    A
       CODE:1582 41              ??         41h    A
       CODE:1583 41              ??         41h    A
       CODE:1584 41              ??         41h    A
       CODE:1585 41              ??         41h    A
       CODE:1586 41              ??         41h    A
       CODE:1587 41              ??         41h    A
       CODE:1588 41              ??         41h    A
       CODE:1589 41              ??         41h    A
       CODE:158a 41              ??         41h    A
       CODE:158b 41              ??         41h    A
       CODE:158c 41              ??         41h    A
       CODE:158d 41              ??         41h    A
       CODE:158e 41              ??         41h    A
       CODE:158f 41              ??         41h    A
       CODE:1590 41              ??         41h    A
       CODE:1591 41              ??         41h    A
       CODE:1592 41              ??         41h    A
       CODE:1593 41              ??         41h    A
       CODE:1594 41              ??         41h    A
       CODE:1595 41              ??         41h    A
       CODE:1596 41              ??         41h    A
       CODE:1597 41              ??         41h    A
       CODE:1598 41              ??         41h    A
       CODE:1599 41              ??         41h    A
       CODE:159a 41              ??         41h    A
       CODE:159b 41              ??         41h    A
       CODE:159c 41              ??         41h    A
       CODE:159d 41              ??         41h    A
       CODE:159e 41              ??         41h    A
       CODE:159f 41              ??         41h    A
       CODE:15a0 41              ??         41h    A
       CODE:15a1 41              ??         41h    A
       CODE:15a2 41              ??         41h    A
       CODE:15a3 41              ??         41h    A
       CODE:15a4 41              ??         41h    A
       CODE:15a5 41              ??         41h    A
       CODE:15a6 41              ??         41h    A
       CODE:15a7 41              ??         41h    A
       CODE:15a8 41              ??         41h    A
       CODE:15a9 41              ??         41h    A
       CODE:15aa 41              ??         41h    A
       CODE:15ab 41              ??         41h    A
       CODE:15ac 41              ??         41h    A
       CODE:15ad 41              ??         41h    A
       CODE:15ae 41              ??         41h    A
       CODE:15af 41              ??         41h    A
       CODE:15b0 41              ??         41h    A
       CODE:15b1 41              ??         41h    A
       CODE:15b2 41              ??         41h    A
       CODE:15b3 41              ??         41h    A
       CODE:15b4 41              ??         41h    A
       CODE:15b5 41              ??         41h    A
       CODE:15b6 41              ??         41h    A
       CODE:15b7 41              ??         41h    A
       CODE:15b8 41              ??         41h    A
       CODE:15b9 41              ??         41h    A
       CODE:15ba 41              ??         41h    A
       CODE:15bb 41              ??         41h    A
       CODE:15bc 41              ??         41h    A
       CODE:15bd 41              ??         41h    A
       CODE:15be 41              ??         41h    A
       CODE:15bf 41              ??         41h    A
       CODE:15c0 41              ??         41h    A
       CODE:15c1 41              ??         41h    A
       CODE:15c2 41              ??         41h    A
       CODE:15c3 41              ??         41h    A
       CODE:15c4 41              ??         41h    A
       CODE:15c5 41              ??         41h    A
       CODE:15c6 41              ??         41h    A
       CODE:15c7 41              ??         41h    A
       CODE:15c8 41              ??         41h    A
       CODE:15c9 41              ??         41h    A
       CODE:15ca 41              ??         41h    A
       CODE:15cb 41              ??         41h    A
       CODE:15cc 41              ??         41h    A
       CODE:15cd 41              ??         41h    A
       CODE:15ce 41              ??         41h    A
       CODE:15cf 41              ??         41h    A
       CODE:15d0 41              ??         41h    A
       CODE:15d1 41              ??         41h    A
       CODE:15d2 41              ??         41h    A
       CODE:15d3 41              ??         41h    A
       CODE:15d4 41              ??         41h    A
       CODE:15d5 41              ??         41h    A
       CODE:15d6 41              ??         41h    A
       CODE:15d7 41              ??         41h    A
       CODE:15d8 41              ??         41h    A
       CODE:15d9 41              ??         41h    A
       CODE:15da 41              ??         41h    A
       CODE:15db 41              ??         41h    A
       CODE:15dc 41              ??         41h    A
       CODE:15dd 41              ??         41h    A
       CODE:15de 41              ??         41h    A
       CODE:15df 41              ??         41h    A
       CODE:15e0 41              ??         41h    A
       CODE:15e1 41              ??         41h    A
       CODE:15e2 41              ??         41h    A
       CODE:15e3 41              ??         41h    A
       CODE:15e4 41              ??         41h    A
       CODE:15e5 41              ??         41h    A
       CODE:15e6 41              ??         41h    A
       CODE:15e7 41              ??         41h    A
       CODE:15e8 41              ??         41h    A
       CODE:15e9 41              ??         41h    A
       CODE:15ea 41              ??         41h    A
       CODE:15eb 41              ??         41h    A
       CODE:15ec 41              ??         41h    A
       CODE:15ed 41              ??         41h    A
       CODE:15ee 41              ??         41h    A
       CODE:15ef 41              ??         41h    A
       CODE:15f0 41              ??         41h    A
       CODE:15f1 41              ??         41h    A
       CODE:15f2 41              ??         41h    A
       CODE:15f3 41              ??         41h    A
       CODE:15f4 41              ??         41h    A
       CODE:15f5 41              ??         41h    A
       CODE:15f6 41              ??         41h    A
       CODE:15f7 41              ??         41h    A
       CODE:15f8 41              ??         41h    A
       CODE:15f9 41              ??         41h    A
       CODE:15fa 41              ??         41h    A
       CODE:15fb 41              ??         41h    A
       CODE:15fc 41              ??         41h    A
       CODE:15fd 41              ??         41h    A
       CODE:15fe 41              ??         41h    A
       CODE:15ff 41              ??         41h    A
       CODE:1600 41              ??         41h    A
       CODE:1601 41              ??         41h    A
       CODE:1602 41              ??         41h    A
       CODE:1603 41              ??         41h    A
       CODE:1604 41              ??         41h    A
       CODE:1605 41              ??         41h    A
       CODE:1606 41              ??         41h    A
       CODE:1607 41              ??         41h    A
       CODE:1608 41              ??         41h    A
       CODE:1609 41              ??         41h    A
       CODE:160a 41              ??         41h    A
       CODE:160b 41              ??         41h    A
       CODE:160c 41              ??         41h    A
       CODE:160d 41              ??         41h    A
       CODE:160e 41              ??         41h    A
       CODE:160f 41              ??         41h    A
       CODE:1610 41              ??         41h    A
       CODE:1611 41              ??         41h    A
       CODE:1612 41              ??         41h    A
       CODE:1613 41              ??         41h    A
       CODE:1614 41              ??         41h    A
       CODE:1615 41              ??         41h    A
       CODE:1616 41              ??         41h    A
       CODE:1617 41              ??         41h    A
       CODE:1618 41              ??         41h    A
       CODE:1619 41              ??         41h    A
       CODE:161a 41              ??         41h    A
       CODE:161b 41              ??         41h    A
       CODE:161c 41              ??         41h    A
       CODE:161d 41              ??         41h    A
       CODE:161e 41              ??         41h    A
       CODE:161f 41              ??         41h    A
       CODE:1620 41              ??         41h    A
       CODE:1621 41              ??         41h    A
       CODE:1622 41              ??         41h    A
       CODE:1623 41              ??         41h    A
       CODE:1624 41              ??         41h    A
       CODE:1625 41              ??         41h    A
       CODE:1626 41              ??         41h    A
       CODE:1627 41              ??         41h    A
       CODE:1628 41              ??         41h    A
       CODE:1629 41              ??         41h    A
       CODE:162a 41              ??         41h    A
       CODE:162b 41              ??         41h    A
       CODE:162c 41              ??         41h    A
       CODE:162d 41              ??         41h    A
       CODE:162e 41              ??         41h    A
       CODE:162f 41              ??         41h    A
       CODE:1630 41              ??         41h    A
       CODE:1631 41              ??         41h    A
       CODE:1632 41              ??         41h    A
       CODE:1633 41              ??         41h    A
       CODE:1634 41              ??         41h    A
       CODE:1635 41              ??         41h    A
       CODE:1636 41              ??         41h    A
       CODE:1637 41              ??         41h    A
       CODE:1638 41              ??         41h    A
       CODE:1639 41              ??         41h    A
       CODE:163a 41              ??         41h    A
       CODE:163b 41              ??         41h    A
       CODE:163c 41              ??         41h    A
       CODE:163d 41              ??         41h    A
       CODE:163e 41              ??         41h    A
       CODE:163f 41              ??         41h    A
       CODE:1640 41              ??         41h    A
       CODE:1641 41              ??         41h    A
       CODE:1642 41              ??         41h    A
       CODE:1643 41              ??         41h    A
       CODE:1644 41              ??         41h    A
       CODE:1645 41              ??         41h    A
       CODE:1646 41              ??         41h    A
       CODE:1647 41              ??         41h    A
       CODE:1648 41              ??         41h    A
       CODE:1649 41              ??         41h    A
       CODE:164a 41              ??         41h    A
       CODE:164b 41              ??         41h    A
       CODE:164c 41              ??         41h    A
       CODE:164d 41              ??         41h    A
       CODE:164e 41              ??         41h    A
       CODE:164f 41              ??         41h    A
       CODE:1650 41              ??         41h    A
       CODE:1651 41              ??         41h    A
       CODE:1652 41              ??         41h    A
       CODE:1653 41              ??         41h    A
       CODE:1654 41              ??         41h    A
       CODE:1655 41              ??         41h    A
       CODE:1656 41              ??         41h    A
       CODE:1657 41              ??         41h    A
       CODE:1658 41              ??         41h    A
       CODE:1659 41              ??         41h    A
       CODE:165a 41              ??         41h    A
       CODE:165b 41              ??         41h    A
       CODE:165c 41              ??         41h    A
       CODE:165d 41              ??         41h    A
       CODE:165e 41              ??         41h    A
       CODE:165f 41              ??         41h    A
       CODE:1660 41              ??         41h    A
       CODE:1661 41              ??         41h    A
       CODE:1662 41              ??         41h    A
       CODE:1663 41              ??         41h    A
       CODE:1664 41              ??         41h    A
       CODE:1665 41              ??         41h    A
       CODE:1666 41              ??         41h    A
       CODE:1667 41              ??         41h    A
       CODE:1668 41              ??         41h    A
       CODE:1669 41              ??         41h    A
       CODE:166a 41              ??         41h    A
       CODE:166b 41              ??         41h    A
       CODE:166c 41              ??         41h    A
       CODE:166d 41              ??         41h    A
       CODE:166e 41              ??         41h    A
       CODE:166f 41              ??         41h    A
       CODE:1670 41              ??         41h    A
       CODE:1671 41              ??         41h    A
       CODE:1672 41              ??         41h    A
       CODE:1673 41              ??         41h    A
       CODE:1674 41              ??         41h    A
       CODE:1675 41              ??         41h    A
       CODE:1676 41              ??         41h    A
       CODE:1677 41              ??         41h    A
       CODE:1678 41              ??         41h    A
       CODE:1679 41              ??         41h    A
       CODE:167a 41              ??         41h    A
       CODE:167b 41              ??         41h    A
       CODE:167c 41              ??         41h    A
       CODE:167d 41              ??         41h    A
       CODE:167e 41              ??         41h    A
       CODE:167f 41              ??         41h    A
       CODE:1680 41              ??         41h    A
       CODE:1681 41              ??         41h    A
       CODE:1682 41              ??         41h    A
       CODE:1683 41              ??         41h    A
       CODE:1684 41              ??         41h    A
       CODE:1685 41              ??         41h    A
       CODE:1686 41              ??         41h    A
       CODE:1687 41              ??         41h    A
       CODE:1688 41              ??         41h    A
       CODE:1689 41              ??         41h    A
       CODE:168a 41              ??         41h    A
       CODE:168b 41              ??         41h    A
       CODE:168c 41              ??         41h    A
       CODE:168d 41              ??         41h    A
       CODE:168e 41              ??         41h    A
       CODE:168f 41              ??         41h    A
       CODE:1690 41              ??         41h    A
       CODE:1691 41              ??         41h    A
       CODE:1692 41              ??         41h    A
       CODE:1693 41              ??         41h    A
       CODE:1694 41              ??         41h    A
       CODE:1695 41              ??         41h    A
       CODE:1696 41              ??         41h    A
       CODE:1697 41              ??         41h    A
       CODE:1698 41              ??         41h    A
       CODE:1699 41              ??         41h    A
       CODE:169a 41              ??         41h    A
       CODE:169b 41              ??         41h    A
       CODE:169c 41              ??         41h    A
       CODE:169d 41              ??         41h    A
       CODE:169e 41              ??         41h    A
       CODE:169f 41              ??         41h    A
       CODE:16a0 41              ??         41h    A
       CODE:16a1 41              ??         41h    A
       CODE:16a2 41              ??         41h    A
       CODE:16a3 41              ??         41h    A
       CODE:16a4 41              ??         41h    A
       CODE:16a5 41              ??         41h    A
       CODE:16a6 41              ??         41h    A
       CODE:16a7 41              ??         41h    A
       CODE:16a8 41              ??         41h    A
       CODE:16a9 41              ??         41h    A
       CODE:16aa 41              ??         41h    A
       CODE:16ab 41              ??         41h    A
       CODE:16ac 41              ??         41h    A
       CODE:16ad 41              ??         41h    A
       CODE:16ae 41              ??         41h    A
       CODE:16af 41              ??         41h    A
       CODE:16b0 41              ??         41h    A
       CODE:16b1 41              ??         41h    A
       CODE:16b2 41              ??         41h    A
       CODE:16b3 41              ??         41h    A
       CODE:16b4 41              ??         41h    A
       CODE:16b5 41              ??         41h    A
       CODE:16b6 41              ??         41h    A
       CODE:16b7 41              ??         41h    A
       CODE:16b8 41              ??         41h    A
       CODE:16b9 41              ??         41h    A
       CODE:16ba 41              ??         41h    A
       CODE:16bb 41              ??         41h    A
       CODE:16bc 41              ??         41h    A
       CODE:16bd 41              ??         41h    A
       CODE:16be 41              ??         41h    A
       CODE:16bf 41              ??         41h    A
       CODE:16c0 41              ??         41h    A
       CODE:16c1 41              ??         41h    A
       CODE:16c2 41              ??         41h    A
       CODE:16c3 41              ??         41h    A
       CODE:16c4 41              ??         41h    A
       CODE:16c5 41              ??         41h    A
       CODE:16c6 41              ??         41h    A
       CODE:16c7 41              ??         41h    A
       CODE:16c8 41              ??         41h    A
       CODE:16c9 41              ??         41h    A
       CODE:16ca 41              ??         41h    A
       CODE:16cb 41              ??         41h    A
       CODE:16cc 41              ??         41h    A
       CODE:16cd 41              ??         41h    A
       CODE:16ce 41              ??         41h    A
       CODE:16cf 41              ??         41h    A
       CODE:16d0 41              ??         41h    A
       CODE:16d1 41              ??         41h    A
       CODE:16d2 41              ??         41h    A
       CODE:16d3 41              ??         41h    A
       CODE:16d4 41              ??         41h    A
       CODE:16d5 41              ??         41h    A
       CODE:16d6 41              ??         41h    A
       CODE:16d7 41              ??         41h    A
       CODE:16d8 41              ??         41h    A
       CODE:16d9 41              ??         41h    A
       CODE:16da 41              ??         41h    A
       CODE:16db 41              ??         41h    A
       CODE:16dc 41              ??         41h    A
       CODE:16dd 41              ??         41h    A
       CODE:16de 41              ??         41h    A
       CODE:16df 41              ??         41h    A
       CODE:16e0 41              ??         41h    A
       CODE:16e1 41              ??         41h    A
       CODE:16e2 41              ??         41h    A
       CODE:16e3 41              ??         41h    A
       CODE:16e4 41              ??         41h    A
       CODE:16e5 41              ??         41h    A
       CODE:16e6 41              ??         41h    A
       CODE:16e7 41              ??         41h    A
       CODE:16e8 41              ??         41h    A
       CODE:16e9 41              ??         41h    A
       CODE:16ea 41              ??         41h    A
       CODE:16eb 41              ??         41h    A
       CODE:16ec 41              ??         41h    A
       CODE:16ed 41              ??         41h    A
       CODE:16ee 41              ??         41h    A
       CODE:16ef 41              ??         41h    A
       CODE:16f0 41              ??         41h    A
       CODE:16f1 41              ??         41h    A
       CODE:16f2 41              ??         41h    A
       CODE:16f3 41              ??         41h    A
       CODE:16f4 41              ??         41h    A
       CODE:16f5 41              ??         41h    A
       CODE:16f6 41              ??         41h    A
       CODE:16f7 41              ??         41h    A
       CODE:16f8 41              ??         41h    A
       CODE:16f9 41              ??         41h    A
       CODE:16fa 41              ??         41h    A
       CODE:16fb 41              ??         41h    A
       CODE:16fc 41              ??         41h    A
       CODE:16fd 41              ??         41h    A
       CODE:16fe 41              ??         41h    A
       CODE:16ff 41              ??         41h    A
       CODE:1700 41              ??         41h    A
       CODE:1701 41              ??         41h    A
       CODE:1702 41              ??         41h    A
       CODE:1703 41              ??         41h    A
       CODE:1704 41              ??         41h    A
       CODE:1705 41              ??         41h    A
       CODE:1706 41              ??         41h    A
       CODE:1707 41              ??         41h    A
       CODE:1708 41              ??         41h    A
       CODE:1709 41              ??         41h    A
       CODE:170a 41              ??         41h    A
       CODE:170b 41              ??         41h    A
       CODE:170c 41              ??         41h    A
       CODE:170d 41              ??         41h    A
       CODE:170e 41              ??         41h    A
       CODE:170f 41              ??         41h    A
       CODE:1710 41              ??         41h    A
       CODE:1711 41              ??         41h    A
       CODE:1712 41              ??         41h    A
       CODE:1713 41              ??         41h    A
       CODE:1714 41              ??         41h    A
       CODE:1715 41              ??         41h    A
       CODE:1716 41              ??         41h    A
       CODE:1717 41              ??         41h    A
       CODE:1718 41              ??         41h    A
       CODE:1719 41              ??         41h    A
       CODE:171a 41              ??         41h    A
       CODE:171b 41              ??         41h    A
       CODE:171c 41              ??         41h    A
       CODE:171d 41              ??         41h    A
       CODE:171e 41              ??         41h    A
       CODE:171f 41              ??         41h    A
       CODE:1720 41              ??         41h    A
       CODE:1721 41              ??         41h    A
       CODE:1722 41              ??         41h    A
       CODE:1723 41              ??         41h    A
       CODE:1724 41              ??         41h    A
       CODE:1725 41              ??         41h    A
       CODE:1726 41              ??         41h    A
       CODE:1727 41              ??         41h    A
       CODE:1728 41              ??         41h    A
       CODE:1729 41              ??         41h    A
       CODE:172a 41              ??         41h    A
       CODE:172b 41              ??         41h    A
       CODE:172c 41              ??         41h    A
       CODE:172d 41              ??         41h    A
       CODE:172e 41              ??         41h    A
       CODE:172f 41              ??         41h    A
       CODE:1730 41              ??         41h    A
       CODE:1731 41              ??         41h    A
       CODE:1732 41              ??         41h    A
       CODE:1733 41              ??         41h    A
       CODE:1734 41              ??         41h    A
       CODE:1735 41              ??         41h    A
       CODE:1736 41              ??         41h    A
       CODE:1737 41              ??         41h    A
       CODE:1738 41              ??         41h    A
       CODE:1739 41              ??         41h    A
       CODE:173a 41              ??         41h    A
       CODE:173b 41              ??         41h    A
       CODE:173c 41              ??         41h    A
       CODE:173d 41              ??         41h    A
       CODE:173e 41              ??         41h    A
       CODE:173f 41              ??         41h    A
       CODE:1740 41              ??         41h    A
       CODE:1741 41              ??         41h    A
       CODE:1742 41              ??         41h    A
       CODE:1743 41              ??         41h    A
       CODE:1744 41              ??         41h    A
       CODE:1745 41              ??         41h    A
       CODE:1746 41              ??         41h    A
       CODE:1747 41              ??         41h    A
       CODE:1748 41              ??         41h    A
       CODE:1749 41              ??         41h    A
       CODE:174a 41              ??         41h    A
       CODE:174b 41              ??         41h    A
       CODE:174c 41              ??         41h    A
       CODE:174d 41              ??         41h    A
       CODE:174e 41              ??         41h    A
       CODE:174f 41              ??         41h    A
       CODE:1750 41              ??         41h    A
       CODE:1751 41              ??         41h    A
       CODE:1752 41              ??         41h    A
       CODE:1753 41              ??         41h    A
       CODE:1754 41              ??         41h    A
       CODE:1755 41              ??         41h    A
       CODE:1756 41              ??         41h    A
       CODE:1757 41              ??         41h    A
       CODE:1758 41              ??         41h    A
       CODE:1759 41              ??         41h    A
       CODE:175a 41              ??         41h    A
       CODE:175b 41              ??         41h    A
       CODE:175c 41              ??         41h    A
       CODE:175d 41              ??         41h    A
       CODE:175e 41              ??         41h    A
       CODE:175f 41              ??         41h    A
       CODE:1760 41              ??         41h    A
       CODE:1761 41              ??         41h    A
       CODE:1762 41              ??         41h    A
       CODE:1763 41              ??         41h    A
       CODE:1764 41              ??         41h    A
       CODE:1765 41              ??         41h    A
       CODE:1766 41              ??         41h    A
       CODE:1767 41              ??         41h    A
       CODE:1768 41              ??         41h    A
       CODE:1769 41              ??         41h    A
       CODE:176a 41              ??         41h    A
       CODE:176b 41              ??         41h    A
       CODE:176c 41              ??         41h    A
       CODE:176d 41              ??         41h    A
       CODE:176e 41              ??         41h    A
       CODE:176f 41              ??         41h    A
       CODE:1770 41              ??         41h    A
       CODE:1771 41              ??         41h    A
       CODE:1772 41              ??         41h    A
       CODE:1773 41              ??         41h    A
       CODE:1774 41              ??         41h    A
       CODE:1775 41              ??         41h    A
       CODE:1776 41              ??         41h    A
       CODE:1777 41              ??         41h    A
       CODE:1778 41              ??         41h    A
       CODE:1779 41              ??         41h    A
       CODE:177a 41              ??         41h    A
       CODE:177b 41              ??         41h    A
       CODE:177c 41              ??         41h    A
       CODE:177d 41              ??         41h    A
       CODE:177e 41              ??         41h    A
       CODE:177f 41              ??         41h    A
       CODE:1780 41              ??         41h    A
       CODE:1781 41              ??         41h    A
       CODE:1782 41              ??         41h    A
       CODE:1783 41              ??         41h    A
       CODE:1784 41              ??         41h    A
       CODE:1785 41              ??         41h    A
       CODE:1786 41              ??         41h    A
       CODE:1787 41              ??         41h    A
       CODE:1788 41              ??         41h    A
       CODE:1789 41              ??         41h    A
       CODE:178a 41              ??         41h    A
       CODE:178b 41              ??         41h    A
       CODE:178c 41              ??         41h    A
       CODE:178d 41              ??         41h    A
       CODE:178e 41              ??         41h    A
       CODE:178f 41              ??         41h    A
       CODE:1790 41              ??         41h    A
       CODE:1791 41              ??         41h    A
       CODE:1792 41              ??         41h    A
       CODE:1793 41              ??         41h    A
       CODE:1794 41              ??         41h    A
       CODE:1795 41              ??         41h    A
       CODE:1796 41              ??         41h    A
       CODE:1797 41              ??         41h    A
       CODE:1798 41              ??         41h    A
       CODE:1799 41              ??         41h    A
       CODE:179a 41              ??         41h    A
       CODE:179b 41              ??         41h    A
       CODE:179c 41              ??         41h    A
       CODE:179d 41              ??         41h    A
       CODE:179e 41              ??         41h    A
       CODE:179f 41              ??         41h    A
       CODE:17a0 41              ??         41h    A
       CODE:17a1 41              ??         41h    A
       CODE:17a2 41              ??         41h    A
       CODE:17a3 41              ??         41h    A
       CODE:17a4 41              ??         41h    A
       CODE:17a5 41              ??         41h    A
       CODE:17a6 41              ??         41h    A
       CODE:17a7 41              ??         41h    A
       CODE:17a8 41              ??         41h    A
       CODE:17a9 41              ??         41h    A
       CODE:17aa 41              ??         41h    A
       CODE:17ab 41              ??         41h    A
       CODE:17ac 41              ??         41h    A
       CODE:17ad 41              ??         41h    A
       CODE:17ae 41              ??         41h    A
       CODE:17af 41              ??         41h    A
       CODE:17b0 41              ??         41h    A
       CODE:17b1 41              ??         41h    A
       CODE:17b2 41              ??         41h    A
       CODE:17b3 41              ??         41h    A
       CODE:17b4 41              ??         41h    A
       CODE:17b5 41              ??         41h    A
       CODE:17b6 41              ??         41h    A
       CODE:17b7 41              ??         41h    A
       CODE:17b8 41              ??         41h    A
       CODE:17b9 41              ??         41h    A
       CODE:17ba 41              ??         41h    A
       CODE:17bb 41              ??         41h    A
       CODE:17bc 41              ??         41h    A
       CODE:17bd 41              ??         41h    A
       CODE:17be 41              ??         41h    A
       CODE:17bf 41              ??         41h    A
       CODE:17c0 41              ??         41h    A
       CODE:17c1 41              ??         41h    A
       CODE:17c2 41              ??         41h    A
       CODE:17c3 41              ??         41h    A
       CODE:17c4 41              ??         41h    A
       CODE:17c5 41              ??         41h    A
       CODE:17c6 41              ??         41h    A
       CODE:17c7 41              ??         41h    A
       CODE:17c8 41              ??         41h    A
       CODE:17c9 41              ??         41h    A
       CODE:17ca 41              ??         41h    A
       CODE:17cb 41              ??         41h    A
       CODE:17cc 41              ??         41h    A
       CODE:17cd 41              ??         41h    A
       CODE:17ce 41              ??         41h    A
       CODE:17cf 41              ??         41h    A
       CODE:17d0 41              ??         41h    A
       CODE:17d1 41              ??         41h    A
       CODE:17d2 41              ??         41h    A
       CODE:17d3 41              ??         41h    A
       CODE:17d4 41              ??         41h    A
       CODE:17d5 41              ??         41h    A
       CODE:17d6 41              ??         41h    A
       CODE:17d7 41              ??         41h    A
       CODE:17d8 41              ??         41h    A
       CODE:17d9 41              ??         41h    A
       CODE:17da 41              ??         41h    A
       CODE:17db 41              ??         41h    A
       CODE:17dc 41              ??         41h    A
       CODE:17dd 41              ??         41h    A
       CODE:17de 41              ??         41h    A
       CODE:17df 41              ??         41h    A
       CODE:17e0 41              ??         41h    A
       CODE:17e1 41              ??         41h    A
       CODE:17e2 41              ??         41h    A
       CODE:17e3 41              ??         41h    A
       CODE:17e4 41              ??         41h    A
       CODE:17e5 41              ??         41h    A
       CODE:17e6 41              ??         41h    A
       CODE:17e7 41              ??         41h    A
       CODE:17e8 41              ??         41h    A
       CODE:17e9 41              ??         41h    A
       CODE:17ea 41              ??         41h    A
       CODE:17eb 41              ??         41h    A
       CODE:17ec 41              ??         41h    A
       CODE:17ed 41              ??         41h    A
       CODE:17ee 41              ??         41h    A
       CODE:17ef 41              ??         41h    A
       CODE:17f0 41              ??         41h    A
       CODE:17f1 41              ??         41h    A
       CODE:17f2 41              ??         41h    A
       CODE:17f3 41              ??         41h    A
       CODE:17f4 41              ??         41h    A
       CODE:17f5 41              ??         41h    A
       CODE:17f6 41              ??         41h    A
       CODE:17f7 41              ??         41h    A
       CODE:17f8 41              ??         41h    A
       CODE:17f9 41              ??         41h    A
       CODE:17fa 41              ??         41h    A
       CODE:17fb 41              ??         41h    A
       CODE:17fc 41              ??         41h    A
       CODE:17fd 41              ??         41h    A
       CODE:17fe 41              ??         41h    A
       CODE:17ff 41              ??         41h    A
       CODE:1800 41              ??         41h    A
       CODE:1801 41              ??         41h    A
       CODE:1802 41              ??         41h    A
       CODE:1803 41              ??         41h    A
       CODE:1804 41              ??         41h    A
       CODE:1805 41              ??         41h    A
       CODE:1806 41              ??         41h    A
       CODE:1807 41              ??         41h    A
       CODE:1808 41              ??         41h    A
       CODE:1809 41              ??         41h    A
       CODE:180a 41              ??         41h    A
       CODE:180b 41              ??         41h    A
       CODE:180c 41              ??         41h    A
       CODE:180d 41              ??         41h    A
       CODE:180e 41              ??         41h    A
       CODE:180f 41              ??         41h    A
       CODE:1810 41              ??         41h    A
       CODE:1811 41              ??         41h    A
       CODE:1812 41              ??         41h    A
       CODE:1813 41              ??         41h    A
       CODE:1814 41              ??         41h    A
       CODE:1815 41              ??         41h    A
       CODE:1816 41              ??         41h    A
       CODE:1817 41              ??         41h    A
       CODE:1818 41              ??         41h    A
       CODE:1819 41              ??         41h    A
       CODE:181a 41              ??         41h    A
       CODE:181b 41              ??         41h    A
       CODE:181c 41              ??         41h    A
       CODE:181d 41              ??         41h    A
       CODE:181e 41              ??         41h    A
       CODE:181f 41              ??         41h    A
       CODE:1820 41              ??         41h    A
       CODE:1821 41              ??         41h    A
       CODE:1822 41              ??         41h    A
       CODE:1823 41              ??         41h    A
       CODE:1824 41              ??         41h    A
       CODE:1825 41              ??         41h    A
       CODE:1826 41              ??         41h    A
       CODE:1827 41              ??         41h    A
       CODE:1828 41              ??         41h    A
       CODE:1829 41              ??         41h    A
       CODE:182a 41              ??         41h    A
       CODE:182b 41              ??         41h    A
       CODE:182c 41              ??         41h    A
       CODE:182d 41              ??         41h    A
       CODE:182e 41              ??         41h    A
       CODE:182f 41              ??         41h    A
       CODE:1830 41              ??         41h    A
       CODE:1831 41              ??         41h    A
       CODE:1832 41              ??         41h    A
       CODE:1833 41              ??         41h    A
       CODE:1834 41              ??         41h    A
       CODE:1835 41              ??         41h    A
       CODE:1836 41              ??         41h    A
       CODE:1837 41              ??         41h    A
       CODE:1838 41              ??         41h    A
       CODE:1839 41              ??         41h    A
       CODE:183a 41              ??         41h    A
       CODE:183b 41              ??         41h    A
       CODE:183c 41              ??         41h    A
       CODE:183d 41              ??         41h    A
       CODE:183e 41              ??         41h    A
       CODE:183f 41              ??         41h    A
       CODE:1840 41              ??         41h    A
       CODE:1841 41              ??         41h    A
       CODE:1842 41              ??         41h    A
       CODE:1843 41              ??         41h    A
       CODE:1844 41              ??         41h    A
       CODE:1845 41              ??         41h    A
       CODE:1846 41              ??         41h    A
       CODE:1847 41              ??         41h    A
       CODE:1848 41              ??         41h    A
       CODE:1849 41              ??         41h    A
       CODE:184a 41              ??         41h    A
       CODE:184b 41              ??         41h    A
       CODE:184c 41              ??         41h    A
       CODE:184d 41              ??         41h    A
       CODE:184e 41              ??         41h    A
       CODE:184f 41              ??         41h    A
       CODE:1850 41              ??         41h    A
       CODE:1851 41              ??         41h    A
       CODE:1852 41              ??         41h    A
       CODE:1853 41              ??         41h    A
       CODE:1854 41              ??         41h    A
       CODE:1855 41              ??         41h    A
       CODE:1856 41              ??         41h    A
       CODE:1857 41              ??         41h    A
       CODE:1858 41              ??         41h    A
       CODE:1859 41              ??         41h    A
       CODE:185a 41              ??         41h    A
       CODE:185b 41              ??         41h    A
       CODE:185c 41              ??         41h    A
       CODE:185d 41              ??         41h    A
       CODE:185e 41              ??         41h    A
       CODE:185f 41              ??         41h    A
       CODE:1860 41              ??         41h    A
       CODE:1861 41              ??         41h    A
       CODE:1862 41              ??         41h    A
       CODE:1863 41              ??         41h    A
       CODE:1864 41              ??         41h    A
       CODE:1865 41              ??         41h    A
       CODE:1866 41              ??         41h    A
       CODE:1867 41              ??         41h    A
       CODE:1868 41              ??         41h    A
       CODE:1869 41              ??         41h    A
       CODE:186a 41              ??         41h    A
       CODE:186b 41              ??         41h    A
       CODE:186c 41              ??         41h    A
       CODE:186d 41              ??         41h    A
       CODE:186e 41              ??         41h    A
       CODE:186f 41              ??         41h    A
       CODE:1870 41              ??         41h    A
       CODE:1871 41              ??         41h    A
       CODE:1872 41              ??         41h    A
       CODE:1873 41              ??         41h    A
       CODE:1874 41              ??         41h    A
       CODE:1875 41              ??         41h    A
       CODE:1876 41              ??         41h    A
       CODE:1877 41              ??         41h    A
       CODE:1878 41              ??         41h    A
       CODE:1879 41              ??         41h    A
       CODE:187a 41              ??         41h    A
       CODE:187b 41              ??         41h    A
       CODE:187c 41              ??         41h    A
       CODE:187d 41              ??         41h    A
       CODE:187e 41              ??         41h    A
       CODE:187f 41              ??         41h    A
       CODE:1880 41              ??         41h    A
       CODE:1881 41              ??         41h    A
       CODE:1882 41              ??         41h    A
       CODE:1883 41              ??         41h    A
       CODE:1884 41              ??         41h    A
       CODE:1885 41              ??         41h    A
       CODE:1886 41              ??         41h    A
       CODE:1887 41              ??         41h    A
       CODE:1888 41              ??         41h    A
       CODE:1889 41              ??         41h    A
       CODE:188a 41              ??         41h    A
       CODE:188b 41              ??         41h    A
       CODE:188c 41              ??         41h    A
       CODE:188d 41              ??         41h    A
       CODE:188e 41              ??         41h    A
       CODE:188f 41              ??         41h    A
       CODE:1890 41              ??         41h    A
       CODE:1891 41              ??         41h    A
       CODE:1892 41              ??         41h    A
       CODE:1893 41              ??         41h    A
       CODE:1894 41              ??         41h    A
       CODE:1895 41              ??         41h    A
       CODE:1896 41              ??         41h    A
       CODE:1897 41              ??         41h    A
       CODE:1898 41              ??         41h    A
       CODE:1899 41              ??         41h    A
       CODE:189a 41              ??         41h    A
       CODE:189b 41              ??         41h    A
       CODE:189c 41              ??         41h    A
       CODE:189d 41              ??         41h    A
       CODE:189e 41              ??         41h    A
       CODE:189f 41              ??         41h    A
       CODE:18a0 41              ??         41h    A
       CODE:18a1 41              ??         41h    A
       CODE:18a2 41              ??         41h    A
       CODE:18a3 41              ??         41h    A
       CODE:18a4 41              ??         41h    A
       CODE:18a5 41              ??         41h    A
       CODE:18a6 41              ??         41h    A
       CODE:18a7 41              ??         41h    A
       CODE:18a8 41              ??         41h    A
       CODE:18a9 41              ??         41h    A
       CODE:18aa 41              ??         41h    A
       CODE:18ab 41              ??         41h    A
       CODE:18ac 41              ??         41h    A
       CODE:18ad 41              ??         41h    A
       CODE:18ae 41              ??         41h    A
       CODE:18af 41              ??         41h    A
       CODE:18b0 41              ??         41h    A
       CODE:18b1 41              ??         41h    A
       CODE:18b2 41              ??         41h    A
       CODE:18b3 41              ??         41h    A
       CODE:18b4 41              ??         41h    A
       CODE:18b5 41              ??         41h    A
       CODE:18b6 41              ??         41h    A
       CODE:18b7 41              ??         41h    A
       CODE:18b8 41              ??         41h    A
       CODE:18b9 41              ??         41h    A
       CODE:18ba 41              ??         41h    A
       CODE:18bb 41              ??         41h    A
       CODE:18bc 41              ??         41h    A
       CODE:18bd 41              ??         41h    A
       CODE:18be 41              ??         41h    A
       CODE:18bf 41              ??         41h    A
       CODE:18c0 41              ??         41h    A
       CODE:18c1 41              ??         41h    A
       CODE:18c2 41              ??         41h    A
       CODE:18c3 41              ??         41h    A
       CODE:18c4 41              ??         41h    A
       CODE:18c5 41              ??         41h    A
       CODE:18c6 41              ??         41h    A
       CODE:18c7 41              ??         41h    A
       CODE:18c8 41              ??         41h    A
       CODE:18c9 41              ??         41h    A
       CODE:18ca 41              ??         41h    A
       CODE:18cb 41              ??         41h    A
       CODE:18cc 41              ??         41h    A
       CODE:18cd 41              ??         41h    A
       CODE:18ce 41              ??         41h    A
       CODE:18cf 41              ??         41h    A
       CODE:18d0 41              ??         41h    A
       CODE:18d1 41              ??         41h    A
       CODE:18d2 41              ??         41h    A
       CODE:18d3 41              ??         41h    A
       CODE:18d4 41              ??         41h    A
       CODE:18d5 41              ??         41h    A
       CODE:18d6 41              ??         41h    A
       CODE:18d7 41              ??         41h    A
       CODE:18d8 41              ??         41h    A
       CODE:18d9 41              ??         41h    A
       CODE:18da 41              ??         41h    A
       CODE:18db 41              ??         41h    A
       CODE:18dc 41              ??         41h    A
       CODE:18dd 41              ??         41h    A
       CODE:18de 41              ??         41h    A
       CODE:18df 41              ??         41h    A
       CODE:18e0 41              ??         41h    A
       CODE:18e1 41              ??         41h    A
       CODE:18e2 41              ??         41h    A
       CODE:18e3 41              ??         41h    A
       CODE:18e4 41              ??         41h    A
       CODE:18e5 41              ??         41h    A
       CODE:18e6 41              ??         41h    A
       CODE:18e7 41              ??         41h    A
       CODE:18e8 41              ??         41h    A
       CODE:18e9 41              ??         41h    A
       CODE:18ea 41              ??         41h    A
       CODE:18eb 41              ??         41h    A
       CODE:18ec 41              ??         41h    A
       CODE:18ed 41              ??         41h    A
       CODE:18ee 41              ??         41h    A
       CODE:18ef 41              ??         41h    A
       CODE:18f0 41              ??         41h    A
       CODE:18f1 41              ??         41h    A
       CODE:18f2 41              ??         41h    A
       CODE:18f3 41              ??         41h    A
       CODE:18f4 41              ??         41h    A
       CODE:18f5 41              ??         41h    A
       CODE:18f6 41              ??         41h    A
       CODE:18f7 41              ??         41h    A
       CODE:18f8 41              ??         41h    A
       CODE:18f9 41              ??         41h    A
       CODE:18fa 41              ??         41h    A
       CODE:18fb 41              ??         41h    A
       CODE:18fc 41              ??         41h    A
       CODE:18fd 41              ??         41h    A
       CODE:18fe 41              ??         41h    A
       CODE:18ff 41              ??         41h    A
       CODE:1900 41              ??         41h    A
       CODE:1901 41              ??         41h    A
       CODE:1902 41              ??         41h    A
       CODE:1903 41              ??         41h    A
       CODE:1904 41              ??         41h    A
       CODE:1905 41              ??         41h    A
       CODE:1906 41              ??         41h    A
       CODE:1907 41              ??         41h    A
       CODE:1908 41              ??         41h    A
       CODE:1909 41              ??         41h    A
       CODE:190a 41              ??         41h    A
       CODE:190b 41              ??         41h    A
       CODE:190c 41              ??         41h    A
       CODE:190d 41              ??         41h    A
       CODE:190e 41              ??         41h    A
       CODE:190f 41              ??         41h    A
       CODE:1910 41              ??         41h    A
       CODE:1911 41              ??         41h    A
       CODE:1912 41              ??         41h    A
       CODE:1913 41              ??         41h    A
       CODE:1914 41              ??         41h    A
       CODE:1915 41              ??         41h    A
       CODE:1916 41              ??         41h    A
       CODE:1917 41              ??         41h    A
       CODE:1918 41              ??         41h    A
       CODE:1919 41              ??         41h    A
       CODE:191a 41              ??         41h    A
       CODE:191b 41              ??         41h    A
       CODE:191c 41              ??         41h    A
       CODE:191d 41              ??         41h    A
       CODE:191e 41              ??         41h    A
       CODE:191f 41              ??         41h    A
       CODE:1920 41              ??         41h    A
       CODE:1921 41              ??         41h    A
       CODE:1922 41              ??         41h    A
       CODE:1923 41              ??         41h    A
       CODE:1924 41              ??         41h    A
       CODE:1925 41              ??         41h    A
       CODE:1926 41              ??         41h    A
       CODE:1927 41              ??         41h    A
       CODE:1928 41              ??         41h    A
       CODE:1929 41              ??         41h    A
       CODE:192a 41              ??         41h    A
       CODE:192b 41              ??         41h    A
       CODE:192c 41              ??         41h    A
       CODE:192d 41              ??         41h    A
       CODE:192e 41              ??         41h    A
       CODE:192f 41              ??         41h    A
       CODE:1930 41              ??         41h    A
       CODE:1931 41              ??         41h    A
       CODE:1932 41              ??         41h    A
       CODE:1933 41              ??         41h    A
       CODE:1934 41              ??         41h    A
       CODE:1935 41              ??         41h    A
       CODE:1936 41              ??         41h    A
       CODE:1937 41              ??         41h    A
       CODE:1938 41              ??         41h    A
       CODE:1939 41              ??         41h    A
       CODE:193a 41              ??         41h    A
       CODE:193b 41              ??         41h    A
       CODE:193c 41              ??         41h    A
       CODE:193d 41              ??         41h    A
       CODE:193e 41              ??         41h    A
       CODE:193f 41              ??         41h    A
       CODE:1940 41              ??         41h    A
       CODE:1941 41              ??         41h    A
       CODE:1942 41              ??         41h    A
       CODE:1943 41              ??         41h    A
       CODE:1944 41              ??         41h    A
       CODE:1945 41              ??         41h    A
       CODE:1946 41              ??         41h    A
       CODE:1947 41              ??         41h    A
       CODE:1948 41              ??         41h    A
       CODE:1949 41              ??         41h    A
       CODE:194a 41              ??         41h    A
       CODE:194b 41              ??         41h    A
       CODE:194c 41              ??         41h    A
       CODE:194d 41              ??         41h    A
       CODE:194e 41              ??         41h    A
       CODE:194f 41              ??         41h    A
       CODE:1950 41              ??         41h    A
       CODE:1951 41              ??         41h    A
       CODE:1952 41              ??         41h    A
       CODE:1953 41              ??         41h    A
       CODE:1954 41              ??         41h    A
       CODE:1955 41              ??         41h    A
       CODE:1956 41              ??         41h    A
       CODE:1957 41              ??         41h    A
       CODE:1958 41              ??         41h    A
       CODE:1959 41              ??         41h    A
       CODE:195a 41              ??         41h    A
       CODE:195b 41              ??         41h    A
       CODE:195c 41              ??         41h    A
       CODE:195d 41              ??         41h    A
       CODE:195e 41              ??         41h    A
       CODE:195f 41              ??         41h    A
       CODE:1960 41              ??         41h    A
       CODE:1961 41              ??         41h    A
       CODE:1962 41              ??         41h    A
       CODE:1963 41              ??         41h    A
       CODE:1964 41              ??         41h    A
       CODE:1965 41              ??         41h    A
       CODE:1966 41              ??         41h    A
       CODE:1967 41              ??         41h    A
       CODE:1968 41              ??         41h    A
       CODE:1969 41              ??         41h    A
       CODE:196a 41              ??         41h    A
       CODE:196b 41              ??         41h    A
       CODE:196c 41              ??         41h    A
       CODE:196d 41              ??         41h    A
       CODE:196e 41              ??         41h    A
       CODE:196f 41              ??         41h    A
       CODE:1970 41              ??         41h    A
       CODE:1971 41              ??         41h    A
       CODE:1972 41              ??         41h    A
       CODE:1973 41              ??         41h    A
       CODE:1974 41              ??         41h    A
       CODE:1975 41              ??         41h    A
       CODE:1976 41              ??         41h    A
       CODE:1977 41              ??         41h    A
       CODE:1978 41              ??         41h    A
       CODE:1979 41              ??         41h    A
       CODE:197a 41              ??         41h    A
       CODE:197b 41              ??         41h    A
       CODE:197c 41              ??         41h    A
       CODE:197d 41              ??         41h    A
       CODE:197e 41              ??         41h    A
       CODE:197f 41              ??         41h    A
       CODE:1980 41              ??         41h    A
       CODE:1981 41              ??         41h    A
       CODE:1982 41              ??         41h    A
       CODE:1983 41              ??         41h    A
       CODE:1984 41              ??         41h    A
       CODE:1985 41              ??         41h    A
       CODE:1986 41              ??         41h    A
       CODE:1987 41              ??         41h    A
       CODE:1988 41              ??         41h    A
       CODE:1989 41              ??         41h    A
       CODE:198a 41              ??         41h    A
       CODE:198b 41              ??         41h    A
       CODE:198c 41              ??         41h    A
       CODE:198d 41              ??         41h    A
       CODE:198e 41              ??         41h    A
       CODE:198f 41              ??         41h    A
       CODE:1990 41              ??         41h    A
       CODE:1991 41              ??         41h    A
       CODE:1992 41              ??         41h    A
       CODE:1993 41              ??         41h    A
       CODE:1994 41              ??         41h    A
       CODE:1995 41              ??         41h    A
       CODE:1996 41              ??         41h    A
       CODE:1997 41              ??         41h    A
       CODE:1998 41              ??         41h    A
       CODE:1999 41              ??         41h    A
       CODE:199a 41              ??         41h    A
       CODE:199b 41              ??         41h    A
       CODE:199c 41              ??         41h    A
       CODE:199d 41              ??         41h    A
       CODE:199e 41              ??         41h    A
       CODE:199f 41              ??         41h    A
       CODE:19a0 41              ??         41h    A
       CODE:19a1 41              ??         41h    A
       CODE:19a2 41              ??         41h    A
       CODE:19a3 41              ??         41h    A
       CODE:19a4 41              ??         41h    A
       CODE:19a5 41              ??         41h    A
       CODE:19a6 41              ??         41h    A
       CODE:19a7 41              ??         41h    A
       CODE:19a8 41              ??         41h    A
       CODE:19a9 41              ??         41h    A
       CODE:19aa 41              ??         41h    A
       CODE:19ab 41              ??         41h    A
       CODE:19ac 41              ??         41h    A
       CODE:19ad 41              ??         41h    A
       CODE:19ae 41              ??         41h    A
       CODE:19af 41              ??         41h    A
       CODE:19b0 41              ??         41h    A
       CODE:19b1 41              ??         41h    A
       CODE:19b2 41              ??         41h    A
       CODE:19b3 41              ??         41h    A
       CODE:19b4 41              ??         41h    A
       CODE:19b5 41              ??         41h    A
       CODE:19b6 41              ??         41h    A
       CODE:19b7 41              ??         41h    A
       CODE:19b8 41              ??         41h    A
       CODE:19b9 41              ??         41h    A
       CODE:19ba 41              ??         41h    A
       CODE:19bb 41              ??         41h    A
       CODE:19bc 41              ??         41h    A
       CODE:19bd 41              ??         41h    A
       CODE:19be 41              ??         41h    A
       CODE:19bf 41              ??         41h    A
       CODE:19c0 41              ??         41h    A
       CODE:19c1 41              ??         41h    A
       CODE:19c2 41              ??         41h    A
       CODE:19c3 41              ??         41h    A
       CODE:19c4 41              ??         41h    A
       CODE:19c5 41              ??         41h    A
       CODE:19c6 41              ??         41h    A
       CODE:19c7 41              ??         41h    A
       CODE:19c8 41              ??         41h    A
       CODE:19c9 41              ??         41h    A
       CODE:19ca 41              ??         41h    A
       CODE:19cb 41              ??         41h    A
       CODE:19cc 41              ??         41h    A
       CODE:19cd 41              ??         41h    A
       CODE:19ce 41              ??         41h    A
       CODE:19cf 41              ??         41h    A
       CODE:19d0 41              ??         41h    A
       CODE:19d1 41              ??         41h    A
       CODE:19d2 41              ??         41h    A
       CODE:19d3 41              ??         41h    A
       CODE:19d4 41              ??         41h    A
       CODE:19d5 41              ??         41h    A
       CODE:19d6 41              ??         41h    A
       CODE:19d7 41              ??         41h    A
       CODE:19d8 41              ??         41h    A
       CODE:19d9 41              ??         41h    A
       CODE:19da 41              ??         41h    A
       CODE:19db 41              ??         41h    A
       CODE:19dc 41              ??         41h    A
       CODE:19dd 41              ??         41h    A
       CODE:19de 41              ??         41h    A
       CODE:19df 41              ??         41h    A
       CODE:19e0 41              ??         41h    A
       CODE:19e1 41              ??         41h    A
       CODE:19e2 41              ??         41h    A
       CODE:19e3 41              ??         41h    A
       CODE:19e4 41              ??         41h    A
       CODE:19e5 41              ??         41h    A
       CODE:19e6 41              ??         41h    A
       CODE:19e7 41              ??         41h    A
       CODE:19e8 41              ??         41h    A
       CODE:19e9 41              ??         41h    A
       CODE:19ea 41              ??         41h    A
       CODE:19eb 41              ??         41h    A
       CODE:19ec 41              ??         41h    A
       CODE:19ed 41              ??         41h    A
       CODE:19ee 41              ??         41h    A
       CODE:19ef 41              ??         41h    A
       CODE:19f0 41              ??         41h    A
       CODE:19f1 41              ??         41h    A
       CODE:19f2 41              ??         41h    A
       CODE:19f3 41              ??         41h    A
       CODE:19f4 41              ??         41h    A
       CODE:19f5 41              ??         41h    A
       CODE:19f6 41              ??         41h    A
       CODE:19f7 41              ??         41h    A
       CODE:19f8 41              ??         41h    A
       CODE:19f9 41              ??         41h    A
       CODE:19fa 41              ??         41h    A
       CODE:19fb 41              ??         41h    A
       CODE:19fc 41              ??         41h    A
       CODE:19fd 41              ??         41h    A
       CODE:19fe 41              ??         41h    A
       CODE:19ff 41              ??         41h    A
       CODE:1a00 41              ??         41h    A
       CODE:1a01 41              ??         41h    A
       CODE:1a02 41              ??         41h    A
       CODE:1a03 41              ??         41h    A
       CODE:1a04 41              ??         41h    A
       CODE:1a05 41              ??         41h    A
       CODE:1a06 41              ??         41h    A
       CODE:1a07 41              ??         41h    A
       CODE:1a08 41              ??         41h    A
       CODE:1a09 41              ??         41h    A
       CODE:1a0a 41              ??         41h    A
       CODE:1a0b 41              ??         41h    A
       CODE:1a0c 41              ??         41h    A
       CODE:1a0d 41              ??         41h    A
       CODE:1a0e 41              ??         41h    A
       CODE:1a0f 41              ??         41h    A
       CODE:1a10 41              ??         41h    A
       CODE:1a11 41              ??         41h    A
       CODE:1a12 41              ??         41h    A
       CODE:1a13 41              ??         41h    A
       CODE:1a14 41              ??         41h    A
       CODE:1a15 41              ??         41h    A
       CODE:1a16 41              ??         41h    A
       CODE:1a17 41              ??         41h    A
       CODE:1a18 41              ??         41h    A
       CODE:1a19 41              ??         41h    A
       CODE:1a1a 41              ??         41h    A
       CODE:1a1b 41              ??         41h    A
       CODE:1a1c 41              ??         41h    A
       CODE:1a1d 41              ??         41h    A
       CODE:1a1e 41              ??         41h    A
       CODE:1a1f 41              ??         41h    A
       CODE:1a20 41              ??         41h    A
       CODE:1a21 41              ??         41h    A
       CODE:1a22 41              ??         41h    A
       CODE:1a23 41              ??         41h    A
       CODE:1a24 41              ??         41h    A
       CODE:1a25 41              ??         41h    A
       CODE:1a26 41              ??         41h    A
       CODE:1a27 41              ??         41h    A
       CODE:1a28 41              ??         41h    A
       CODE:1a29 41              ??         41h    A
       CODE:1a2a 41              ??         41h    A
       CODE:1a2b 41              ??         41h    A
       CODE:1a2c 41              ??         41h    A
       CODE:1a2d 41              ??         41h    A
       CODE:1a2e 41              ??         41h    A
       CODE:1a2f 41              ??         41h    A
       CODE:1a30 41              ??         41h    A
       CODE:1a31 41              ??         41h    A
       CODE:1a32 41              ??         41h    A
       CODE:1a33 41              ??         41h    A
       CODE:1a34 41              ??         41h    A
       CODE:1a35 41              ??         41h    A
       CODE:1a36 41              ??         41h    A
       CODE:1a37 41              ??         41h    A
       CODE:1a38 41              ??         41h    A
       CODE:1a39 41              ??         41h    A
       CODE:1a3a 41              ??         41h    A
       CODE:1a3b 41              ??         41h    A
       CODE:1a3c 41              ??         41h    A
       CODE:1a3d 41              ??         41h    A
       CODE:1a3e 41              ??         41h    A
       CODE:1a3f 41              ??         41h    A
       CODE:1a40 41              ??         41h    A
       CODE:1a41 41              ??         41h    A
       CODE:1a42 41              ??         41h    A
       CODE:1a43 41              ??         41h    A
       CODE:1a44 41              ??         41h    A
       CODE:1a45 41              ??         41h    A
       CODE:1a46 41              ??         41h    A
       CODE:1a47 41              ??         41h    A
       CODE:1a48 41              ??         41h    A
       CODE:1a49 41              ??         41h    A
       CODE:1a4a 41              ??         41h    A
       CODE:1a4b 41              ??         41h    A
       CODE:1a4c 41              ??         41h    A
       CODE:1a4d 41              ??         41h    A
       CODE:1a4e 41              ??         41h    A
       CODE:1a4f 41              ??         41h    A
       CODE:1a50 41              ??         41h    A
       CODE:1a51 41              ??         41h    A
       CODE:1a52 41              ??         41h    A
       CODE:1a53 41              ??         41h    A
       CODE:1a54 41              ??         41h    A
       CODE:1a55 41              ??         41h    A
       CODE:1a56 41              ??         41h    A
       CODE:1a57 41              ??         41h    A
       CODE:1a58 41              ??         41h    A
       CODE:1a59 41              ??         41h    A
       CODE:1a5a 41              ??         41h    A
       CODE:1a5b 41              ??         41h    A
       CODE:1a5c 41              ??         41h    A
       CODE:1a5d 41              ??         41h    A
       CODE:1a5e 41              ??         41h    A
       CODE:1a5f 41              ??         41h    A
       CODE:1a60 41              ??         41h    A
       CODE:1a61 41              ??         41h    A
       CODE:1a62 41              ??         41h    A
       CODE:1a63 41              ??         41h    A
       CODE:1a64 41              ??         41h    A
       CODE:1a65 41              ??         41h    A
       CODE:1a66 41              ??         41h    A
       CODE:1a67 41              ??         41h    A
       CODE:1a68 41              ??         41h    A
       CODE:1a69 41              ??         41h    A
       CODE:1a6a 41              ??         41h    A
       CODE:1a6b 41              ??         41h    A
       CODE:1a6c 41              ??         41h    A
       CODE:1a6d 41              ??         41h    A
       CODE:1a6e 41              ??         41h    A
       CODE:1a6f 41              ??         41h    A
       CODE:1a70 41              ??         41h    A
       CODE:1a71 41              ??         41h    A
       CODE:1a72 41              ??         41h    A
       CODE:1a73 41              ??         41h    A
       CODE:1a74 41              ??         41h    A
       CODE:1a75 41              ??         41h    A
       CODE:1a76 41              ??         41h    A
       CODE:1a77 41              ??         41h    A
       CODE:1a78 41              ??         41h    A
       CODE:1a79 41              ??         41h    A
       CODE:1a7a 41              ??         41h    A
       CODE:1a7b 41              ??         41h    A
       CODE:1a7c 41              ??         41h    A
       CODE:1a7d 41              ??         41h    A
       CODE:1a7e 41              ??         41h    A
       CODE:1a7f 41              ??         41h    A
       CODE:1a80 41              ??         41h    A
       CODE:1a81 41              ??         41h    A
       CODE:1a82 41              ??         41h    A
       CODE:1a83 41              ??         41h    A
       CODE:1a84 41              ??         41h    A
       CODE:1a85 41              ??         41h    A
       CODE:1a86 41              ??         41h    A
       CODE:1a87 41              ??         41h    A
       CODE:1a88 41              ??         41h    A
       CODE:1a89 41              ??         41h    A
       CODE:1a8a 41              ??         41h    A
       CODE:1a8b 41              ??         41h    A
       CODE:1a8c 41              ??         41h    A
       CODE:1a8d 41              ??         41h    A
       CODE:1a8e 41              ??         41h    A
       CODE:1a8f 41              ??         41h    A
       CODE:1a90 41              ??         41h    A
       CODE:1a91 41              ??         41h    A
       CODE:1a92 41              ??         41h    A
       CODE:1a93 41              ??         41h    A
       CODE:1a94 41              ??         41h    A
       CODE:1a95 41              ??         41h    A
       CODE:1a96 41              ??         41h    A
       CODE:1a97 41              ??         41h    A
       CODE:1a98 41              ??         41h    A
       CODE:1a99 41              ??         41h    A
       CODE:1a9a 41              ??         41h    A
       CODE:1a9b 41              ??         41h    A
       CODE:1a9c 41              ??         41h    A
       CODE:1a9d 41              ??         41h    A
       CODE:1a9e 41              ??         41h    A
       CODE:1a9f 41              ??         41h    A
       CODE:1aa0 41              ??         41h    A
       CODE:1aa1 41              ??         41h    A
       CODE:1aa2 41              ??         41h    A
       CODE:1aa3 41              ??         41h    A
       CODE:1aa4 41              ??         41h    A
       CODE:1aa5 41              ??         41h    A
       CODE:1aa6 41              ??         41h    A
       CODE:1aa7 41              ??         41h    A
       CODE:1aa8 41              ??         41h    A
       CODE:1aa9 41              ??         41h    A
       CODE:1aaa 41              ??         41h    A
       CODE:1aab 41              ??         41h    A
       CODE:1aac 41              ??         41h    A
       CODE:1aad 41              ??         41h    A
       CODE:1aae 41              ??         41h    A
       CODE:1aaf 41              ??         41h    A
       CODE:1ab0 41              ??         41h    A
       CODE:1ab1 41              ??         41h    A
       CODE:1ab2 41              ??         41h    A
       CODE:1ab3 41              ??         41h    A
       CODE:1ab4 41              ??         41h    A
       CODE:1ab5 41              ??         41h    A
       CODE:1ab6 41              ??         41h    A
       CODE:1ab7 41              ??         41h    A
       CODE:1ab8 41              ??         41h    A
       CODE:1ab9 41              ??         41h    A
       CODE:1aba 41              ??         41h    A
       CODE:1abb 41              ??         41h    A
       CODE:1abc 41              ??         41h    A
       CODE:1abd 41              ??         41h    A
       CODE:1abe 41              ??         41h    A
       CODE:1abf 41              ??         41h    A
       CODE:1ac0 41              ??         41h    A
       CODE:1ac1 41              ??         41h    A
       CODE:1ac2 41              ??         41h    A
       CODE:1ac3 41              ??         41h    A
       CODE:1ac4 41              ??         41h    A
       CODE:1ac5 41              ??         41h    A
       CODE:1ac6 41              ??         41h    A
       CODE:1ac7 41              ??         41h    A
       CODE:1ac8 41              ??         41h    A
       CODE:1ac9 41              ??         41h    A
       CODE:1aca 41              ??         41h    A
       CODE:1acb 41              ??         41h    A
       CODE:1acc 41              ??         41h    A
       CODE:1acd 41              ??         41h    A
       CODE:1ace 41              ??         41h    A
       CODE:1acf 41              ??         41h    A
       CODE:1ad0 41              ??         41h    A
       CODE:1ad1 41              ??         41h    A
       CODE:1ad2 41              ??         41h    A
       CODE:1ad3 41              ??         41h    A
       CODE:1ad4 41              ??         41h    A
       CODE:1ad5 41              ??         41h    A
       CODE:1ad6 41              ??         41h    A
       CODE:1ad7 41              ??         41h    A
       CODE:1ad8 41              ??         41h    A
       CODE:1ad9 41              ??         41h    A
       CODE:1ada 41              ??         41h    A
       CODE:1adb 41              ??         41h    A
       CODE:1adc 41              ??         41h    A
       CODE:1add 41              ??         41h    A
       CODE:1ade 41              ??         41h    A
       CODE:1adf 41              ??         41h    A
       CODE:1ae0 41              ??         41h    A
       CODE:1ae1 41              ??         41h    A
       CODE:1ae2 41              ??         41h    A
       CODE:1ae3 41              ??         41h    A
       CODE:1ae4 41              ??         41h    A
       CODE:1ae5 41              ??         41h    A
       CODE:1ae6 41              ??         41h    A
       CODE:1ae7 41              ??         41h    A
       CODE:1ae8 41              ??         41h    A
       CODE:1ae9 41              ??         41h    A
       CODE:1aea 41              ??         41h    A
       CODE:1aeb 41              ??         41h    A
       CODE:1aec 41              ??         41h    A
       CODE:1aed 41              ??         41h    A
       CODE:1aee 41              ??         41h    A
       CODE:1aef 41              ??         41h    A
       CODE:1af0 41              ??         41h    A
       CODE:1af1 41              ??         41h    A
       CODE:1af2 41              ??         41h    A
       CODE:1af3 41              ??         41h    A
       CODE:1af4 41              ??         41h    A
       CODE:1af5 41              ??         41h    A
       CODE:1af6 41              ??         41h    A
       CODE:1af7 41              ??         41h    A
       CODE:1af8 41              ??         41h    A
       CODE:1af9 41              ??         41h    A
       CODE:1afa 41              ??         41h    A
       CODE:1afb 41              ??         41h    A
       CODE:1afc 41              ??         41h    A
       CODE:1afd 41              ??         41h    A
       CODE:1afe 41              ??         41h    A
       CODE:1aff 41              ??         41h    A
       CODE:1b00 41              ??         41h    A
       CODE:1b01 41              ??         41h    A
       CODE:1b02 41              ??         41h    A
       CODE:1b03 41              ??         41h    A
       CODE:1b04 41              ??         41h    A
       CODE:1b05 41              ??         41h    A
       CODE:1b06 41              ??         41h    A
       CODE:1b07 41              ??         41h    A
       CODE:1b08 41              ??         41h    A
       CODE:1b09 41              ??         41h    A
       CODE:1b0a 41              ??         41h    A
       CODE:1b0b 41              ??         41h    A
       CODE:1b0c 41              ??         41h    A
       CODE:1b0d 41              ??         41h    A
       CODE:1b0e 41              ??         41h    A
       CODE:1b0f 41              ??         41h    A
       CODE:1b10 41              ??         41h    A
       CODE:1b11 41              ??         41h    A
       CODE:1b12 41              ??         41h    A
       CODE:1b13 41              ??         41h    A
       CODE:1b14 41              ??         41h    A
       CODE:1b15 41              ??         41h    A
       CODE:1b16 41              ??         41h    A
       CODE:1b17 41              ??         41h    A
       CODE:1b18 41              ??         41h    A
       CODE:1b19 41              ??         41h    A
       CODE:1b1a 41              ??         41h    A
       CODE:1b1b 41              ??         41h    A
       CODE:1b1c 41              ??         41h    A
       CODE:1b1d 41              ??         41h    A
       CODE:1b1e 41              ??         41h    A
       CODE:1b1f 41              ??         41h    A
       CODE:1b20 41              ??         41h    A
       CODE:1b21 41              ??         41h    A
       CODE:1b22 41              ??         41h    A
       CODE:1b23 41              ??         41h    A
       CODE:1b24 41              ??         41h    A
       CODE:1b25 41              ??         41h    A
       CODE:1b26 41              ??         41h    A
       CODE:1b27 41              ??         41h    A
       CODE:1b28 41              ??         41h    A
       CODE:1b29 41              ??         41h    A
       CODE:1b2a 41              ??         41h    A
       CODE:1b2b 41              ??         41h    A
       CODE:1b2c 41              ??         41h    A
       CODE:1b2d 41              ??         41h    A
       CODE:1b2e 41              ??         41h    A
       CODE:1b2f 41              ??         41h    A
       CODE:1b30 41              ??         41h    A
       CODE:1b31 41              ??         41h    A
       CODE:1b32 41              ??         41h    A
       CODE:1b33 41              ??         41h    A
       CODE:1b34 41              ??         41h    A
       CODE:1b35 41              ??         41h    A
       CODE:1b36 41              ??         41h    A
       CODE:1b37 41              ??         41h    A
       CODE:1b38 41              ??         41h    A
       CODE:1b39 41              ??         41h    A
       CODE:1b3a 41              ??         41h    A
       CODE:1b3b 41              ??         41h    A
       CODE:1b3c 41              ??         41h    A
       CODE:1b3d 41              ??         41h    A
       CODE:1b3e 41              ??         41h    A
       CODE:1b3f 41              ??         41h    A
       CODE:1b40 41              ??         41h    A
       CODE:1b41 41              ??         41h    A
       CODE:1b42 41              ??         41h    A
       CODE:1b43 41              ??         41h    A
       CODE:1b44 41              ??         41h    A
       CODE:1b45 41              ??         41h    A
       CODE:1b46 41              ??         41h    A
       CODE:1b47 41              ??         41h    A
       CODE:1b48 41              ??         41h    A
       CODE:1b49 41              ??         41h    A
       CODE:1b4a 41              ??         41h    A
       CODE:1b4b 41              ??         41h    A
       CODE:1b4c 41              ??         41h    A
       CODE:1b4d 41              ??         41h    A
       CODE:1b4e 41              ??         41h    A
       CODE:1b4f 41              ??         41h    A
       CODE:1b50 41              ??         41h    A
       CODE:1b51 41              ??         41h    A
       CODE:1b52 41              ??         41h    A
       CODE:1b53 41              ??         41h    A
       CODE:1b54 41              ??         41h    A
       CODE:1b55 41              ??         41h    A
       CODE:1b56 41              ??         41h    A
       CODE:1b57 41              ??         41h    A
       CODE:1b58 41              ??         41h    A
       CODE:1b59 41              ??         41h    A
       CODE:1b5a 41              ??         41h    A
       CODE:1b5b 41              ??         41h    A
       CODE:1b5c 41              ??         41h    A
       CODE:1b5d 41              ??         41h    A
       CODE:1b5e 41              ??         41h    A
       CODE:1b5f 41              ??         41h    A
       CODE:1b60 41              ??         41h    A
       CODE:1b61 41              ??         41h    A
       CODE:1b62 41              ??         41h    A
       CODE:1b63 41              ??         41h    A
       CODE:1b64 41              ??         41h    A
       CODE:1b65 41              ??         41h    A
       CODE:1b66 41              ??         41h    A
       CODE:1b67 41              ??         41h    A
       CODE:1b68 41              ??         41h    A
       CODE:1b69 41              ??         41h    A
       CODE:1b6a 41              ??         41h    A
       CODE:1b6b 41              ??         41h    A
       CODE:1b6c 41              ??         41h    A
       CODE:1b6d 41              ??         41h    A
       CODE:1b6e 41              ??         41h    A
       CODE:1b6f 41              ??         41h    A
       CODE:1b70 41              ??         41h    A
       CODE:1b71 41              ??         41h    A
       CODE:1b72 41              ??         41h    A
       CODE:1b73 41              ??         41h    A
       CODE:1b74 41              ??         41h    A
       CODE:1b75 41              ??         41h    A
       CODE:1b76 41              ??         41h    A
       CODE:1b77 41              ??         41h    A
       CODE:1b78 41              ??         41h    A
       CODE:1b79 41              ??         41h    A
       CODE:1b7a 41              ??         41h    A
       CODE:1b7b 41              ??         41h    A
       CODE:1b7c 41              ??         41h    A
       CODE:1b7d 41              ??         41h    A
       CODE:1b7e 41              ??         41h    A
       CODE:1b7f 41              ??         41h    A
       CODE:1b80 41              ??         41h    A
       CODE:1b81 41              ??         41h    A
       CODE:1b82 41              ??         41h    A
       CODE:1b83 41              ??         41h    A
       CODE:1b84 41              ??         41h    A
       CODE:1b85 41              ??         41h    A
       CODE:1b86 41              ??         41h    A
       CODE:1b87 41              ??         41h    A
       CODE:1b88 41              ??         41h    A
       CODE:1b89 41              ??         41h    A
       CODE:1b8a 41              ??         41h    A
       CODE:1b8b 41              ??         41h    A
       CODE:1b8c 41              ??         41h    A
       CODE:1b8d 41              ??         41h    A
       CODE:1b8e 41              ??         41h    A
       CODE:1b8f 41              ??         41h    A
       CODE:1b90 41              ??         41h    A
       CODE:1b91 41              ??         41h    A
       CODE:1b92 41              ??         41h    A
       CODE:1b93 41              ??         41h    A
       CODE:1b94 41              ??         41h    A
       CODE:1b95 41              ??         41h    A
       CODE:1b96 41              ??         41h    A
       CODE:1b97 41              ??         41h    A
       CODE:1b98 41              ??         41h    A
       CODE:1b99 41              ??         41h    A
       CODE:1b9a 41              ??         41h    A
       CODE:1b9b 41              ??         41h    A
       CODE:1b9c 41              ??         41h    A
       CODE:1b9d 41              ??         41h    A
       CODE:1b9e 41              ??         41h    A
       CODE:1b9f 41              ??         41h    A
       CODE:1ba0 41              ??         41h    A
       CODE:1ba1 41              ??         41h    A
       CODE:1ba2 41              ??         41h    A
       CODE:1ba3 41              ??         41h    A
       CODE:1ba4 41              ??         41h    A
       CODE:1ba5 41              ??         41h    A
       CODE:1ba6 41              ??         41h    A
       CODE:1ba7 41              ??         41h    A
       CODE:1ba8 41              ??         41h    A
       CODE:1ba9 41              ??         41h    A
       CODE:1baa 41              ??         41h    A
       CODE:1bab 41              ??         41h    A
       CODE:1bac 41              ??         41h    A
       CODE:1bad 41              ??         41h    A
       CODE:1bae 41              ??         41h    A
       CODE:1baf 41              ??         41h    A
       CODE:1bb0 41              ??         41h    A
       CODE:1bb1 41              ??         41h    A
       CODE:1bb2 41              ??         41h    A
       CODE:1bb3 41              ??         41h    A
       CODE:1bb4 41              ??         41h    A
       CODE:1bb5 41              ??         41h    A
       CODE:1bb6 41              ??         41h    A
       CODE:1bb7 41              ??         41h    A
       CODE:1bb8 41              ??         41h    A
       CODE:1bb9 41              ??         41h    A
       CODE:1bba 41              ??         41h    A
       CODE:1bbb 41              ??         41h    A
       CODE:1bbc 41              ??         41h    A
       CODE:1bbd 41              ??         41h    A
       CODE:1bbe 41              ??         41h    A
       CODE:1bbf 41              ??         41h    A
       CODE:1bc0 41              ??         41h    A
       CODE:1bc1 41              ??         41h    A
       CODE:1bc2 41              ??         41h    A
       CODE:1bc3 41              ??         41h    A
       CODE:1bc4 41              ??         41h    A
       CODE:1bc5 41              ??         41h    A
       CODE:1bc6 41              ??         41h    A
       CODE:1bc7 41              ??         41h    A
       CODE:1bc8 41              ??         41h    A
       CODE:1bc9 41              ??         41h    A
       CODE:1bca 41              ??         41h    A
       CODE:1bcb 41              ??         41h    A
       CODE:1bcc 41              ??         41h    A
       CODE:1bcd 41              ??         41h    A
       CODE:1bce 41              ??         41h    A
       CODE:1bcf 41              ??         41h    A
       CODE:1bd0 41              ??         41h    A
       CODE:1bd1 41              ??         41h    A
       CODE:1bd2 41              ??         41h    A
       CODE:1bd3 41              ??         41h    A
       CODE:1bd4 41              ??         41h    A
       CODE:1bd5 41              ??         41h    A
       CODE:1bd6 41              ??         41h    A
       CODE:1bd7 41              ??         41h    A
       CODE:1bd8 41              ??         41h    A
       CODE:1bd9 41              ??         41h    A
       CODE:1bda 41              ??         41h    A
       CODE:1bdb 41              ??         41h    A
       CODE:1bdc 41              ??         41h    A
       CODE:1bdd 41              ??         41h    A
       CODE:1bde 41              ??         41h    A
       CODE:1bdf 41              ??         41h    A
       CODE:1be0 41              ??         41h    A
       CODE:1be1 41              ??         41h    A
       CODE:1be2 41              ??         41h    A
       CODE:1be3 41              ??         41h    A
       CODE:1be4 41              ??         41h    A
       CODE:1be5 41              ??         41h    A
       CODE:1be6 41              ??         41h    A
       CODE:1be7 41              ??         41h    A
       CODE:1be8 41              ??         41h    A
       CODE:1be9 41              ??         41h    A
       CODE:1bea 41              ??         41h    A
       CODE:1beb 41              ??         41h    A
       CODE:1bec 41              ??         41h    A
       CODE:1bed 41              ??         41h    A
       CODE:1bee 41              ??         41h    A
       CODE:1bef 41              ??         41h    A
       CODE:1bf0 41              ??         41h    A
       CODE:1bf1 41              ??         41h    A
       CODE:1bf2 41              ??         41h    A
       CODE:1bf3 41              ??         41h    A
       CODE:1bf4 41              ??         41h    A
       CODE:1bf5 41              ??         41h    A
       CODE:1bf6 41              ??         41h    A
       CODE:1bf7 41              ??         41h    A
       CODE:1bf8 41              ??         41h    A
       CODE:1bf9 41              ??         41h    A
       CODE:1bfa 41              ??         41h    A
       CODE:1bfb 41              ??         41h    A
       CODE:1bfc 41              ??         41h    A
       CODE:1bfd 41              ??         41h    A
       CODE:1bfe 41              ??         41h    A
       CODE:1bff 41              ??         41h    A
       CODE:1c00 41              ??         41h    A
       CODE:1c01 41              ??         41h    A
       CODE:1c02 41              ??         41h    A
       CODE:1c03 41              ??         41h    A
       CODE:1c04 41              ??         41h    A
       CODE:1c05 41              ??         41h    A
       CODE:1c06 41              ??         41h    A
       CODE:1c07 41              ??         41h    A
       CODE:1c08 41              ??         41h    A
       CODE:1c09 41              ??         41h    A
       CODE:1c0a 41              ??         41h    A
       CODE:1c0b 41              ??         41h    A
       CODE:1c0c 41              ??         41h    A
       CODE:1c0d 41              ??         41h    A
       CODE:1c0e 41              ??         41h    A
       CODE:1c0f 41              ??         41h    A
       CODE:1c10 41              ??         41h    A
       CODE:1c11 41              ??         41h    A
       CODE:1c12 41              ??         41h    A
       CODE:1c13 41              ??         41h    A
       CODE:1c14 41              ??         41h    A
       CODE:1c15 41              ??         41h    A
       CODE:1c16 41              ??         41h    A
       CODE:1c17 41              ??         41h    A
       CODE:1c18 41              ??         41h    A
       CODE:1c19 41              ??         41h    A
       CODE:1c1a 41              ??         41h    A
       CODE:1c1b 41              ??         41h    A
       CODE:1c1c 41              ??         41h    A
       CODE:1c1d 41              ??         41h    A
       CODE:1c1e 41              ??         41h    A
       CODE:1c1f 41              ??         41h    A
       CODE:1c20 41              ??         41h    A
       CODE:1c21 41              ??         41h    A
       CODE:1c22 41              ??         41h    A
       CODE:1c23 41              ??         41h    A
       CODE:1c24 41              ??         41h    A
       CODE:1c25 41              ??         41h    A
       CODE:1c26 41              ??         41h    A
       CODE:1c27 41              ??         41h    A
       CODE:1c28 41              ??         41h    A
       CODE:1c29 41              ??         41h    A
       CODE:1c2a 41              ??         41h    A
       CODE:1c2b 41              ??         41h    A
       CODE:1c2c 41              ??         41h    A
       CODE:1c2d 41              ??         41h    A
       CODE:1c2e 41              ??         41h    A
       CODE:1c2f 41              ??         41h    A
       CODE:1c30 41              ??         41h    A
       CODE:1c31 41              ??         41h    A
       CODE:1c32 41              ??         41h    A
       CODE:1c33 41              ??         41h    A
       CODE:1c34 41              ??         41h    A
       CODE:1c35 41              ??         41h    A
       CODE:1c36 41              ??         41h    A
       CODE:1c37 41              ??         41h    A
       CODE:1c38 41              ??         41h    A
       CODE:1c39 41              ??         41h    A
       CODE:1c3a 41              ??         41h    A
       CODE:1c3b 41              ??         41h    A
       CODE:1c3c 41              ??         41h    A
       CODE:1c3d 41              ??         41h    A
       CODE:1c3e 41              ??         41h    A
       CODE:1c3f 41              ??         41h    A
       CODE:1c40 41              ??         41h    A
       CODE:1c41 41              ??         41h    A
       CODE:1c42 41              ??         41h    A
       CODE:1c43 41              ??         41h    A
       CODE:1c44 41              ??         41h    A
       CODE:1c45 41              ??         41h    A
       CODE:1c46 41              ??         41h    A
       CODE:1c47 41              ??         41h    A
       CODE:1c48 41              ??         41h    A
       CODE:1c49 41              ??         41h    A
       CODE:1c4a 41              ??         41h    A
       CODE:1c4b 41              ??         41h    A
       CODE:1c4c 41              ??         41h    A
       CODE:1c4d 41              ??         41h    A
       CODE:1c4e 41              ??         41h    A
       CODE:1c4f 41              ??         41h    A
       CODE:1c50 41              ??         41h    A
       CODE:1c51 41              ??         41h    A
       CODE:1c52 41              ??         41h    A
       CODE:1c53 41              ??         41h    A
       CODE:1c54 41              ??         41h    A
       CODE:1c55 41              ??         41h    A
       CODE:1c56 41              ??         41h    A
       CODE:1c57 41              ??         41h    A
       CODE:1c58 41              ??         41h    A
       CODE:1c59 41              ??         41h    A
       CODE:1c5a 41              ??         41h    A
       CODE:1c5b 41              ??         41h    A
       CODE:1c5c 41              ??         41h    A
       CODE:1c5d 41              ??         41h    A
       CODE:1c5e 41              ??         41h    A
       CODE:1c5f 41              ??         41h    A
       CODE:1c60 41              ??         41h    A
       CODE:1c61 41              ??         41h    A
       CODE:1c62 41              ??         41h    A
       CODE:1c63 41              ??         41h    A
       CODE:1c64 41              ??         41h    A
       CODE:1c65 41              ??         41h    A
       CODE:1c66 41              ??         41h    A
       CODE:1c67 41              ??         41h    A
       CODE:1c68 41              ??         41h    A
       CODE:1c69 41              ??         41h    A
       CODE:1c6a 41              ??         41h    A
       CODE:1c6b 41              ??         41h    A
       CODE:1c6c 41              ??         41h    A
       CODE:1c6d 41              ??         41h    A
       CODE:1c6e 41              ??         41h    A
       CODE:1c6f 41              ??         41h    A
       CODE:1c70 41              ??         41h    A
       CODE:1c71 41              ??         41h    A
       CODE:1c72 41              ??         41h    A
       CODE:1c73 41              ??         41h    A
       CODE:1c74 41              ??         41h    A
       CODE:1c75 41              ??         41h    A
       CODE:1c76 41              ??         41h    A
       CODE:1c77 41              ??         41h    A
       CODE:1c78 41              ??         41h    A
       CODE:1c79 41              ??         41h    A
       CODE:1c7a 41              ??         41h    A
       CODE:1c7b 41              ??         41h    A
       CODE:1c7c 41              ??         41h    A
       CODE:1c7d 41              ??         41h    A
       CODE:1c7e 41              ??         41h    A
       CODE:1c7f 41              ??         41h    A
       CODE:1c80 41              ??         41h    A
       CODE:1c81 41              ??         41h    A
       CODE:1c82 41              ??         41h    A
       CODE:1c83 41              ??         41h    A
       CODE:1c84 41              ??         41h    A
       CODE:1c85 41              ??         41h    A
       CODE:1c86 41              ??         41h    A
       CODE:1c87 41              ??         41h    A
       CODE:1c88 41              ??         41h    A
       CODE:1c89 41              ??         41h    A
       CODE:1c8a 41              ??         41h    A
       CODE:1c8b 41              ??         41h    A
       CODE:1c8c 41              ??         41h    A
       CODE:1c8d 41              ??         41h    A
       CODE:1c8e 41              ??         41h    A
       CODE:1c8f 41              ??         41h    A
       CODE:1c90 41              ??         41h    A
       CODE:1c91 41              ??         41h    A
       CODE:1c92 41              ??         41h    A
       CODE:1c93 41              ??         41h    A
       CODE:1c94 41              ??         41h    A
       CODE:1c95 41              ??         41h    A
       CODE:1c96 41              ??         41h    A
       CODE:1c97 41              ??         41h    A
       CODE:1c98 41              ??         41h    A
       CODE:1c99 41              ??         41h    A
       CODE:1c9a 41              ??         41h    A
       CODE:1c9b 41              ??         41h    A
       CODE:1c9c 41              ??         41h    A
       CODE:1c9d 41              ??         41h    A
       CODE:1c9e 41              ??         41h    A
       CODE:1c9f 41              ??         41h    A
       CODE:1ca0 41              ??         41h    A
       CODE:1ca1 41              ??         41h    A
       CODE:1ca2 41              ??         41h    A
       CODE:1ca3 41              ??         41h    A
       CODE:1ca4 41              ??         41h    A
       CODE:1ca5 41              ??         41h    A
       CODE:1ca6 41              ??         41h    A
       CODE:1ca7 41              ??         41h    A
       CODE:1ca8 41              ??         41h    A
       CODE:1ca9 41              ??         41h    A
       CODE:1caa 41              ??         41h    A
       CODE:1cab 41              ??         41h    A
       CODE:1cac 41              ??         41h    A
       CODE:1cad 41              ??         41h    A
       CODE:1cae 41              ??         41h    A
       CODE:1caf 41              ??         41h    A
       CODE:1cb0 41              ??         41h    A
       CODE:1cb1 41              ??         41h    A
       CODE:1cb2 41              ??         41h    A
       CODE:1cb3 41              ??         41h    A
       CODE:1cb4 41              ??         41h    A
       CODE:1cb5 41              ??         41h    A
       CODE:1cb6 41              ??         41h    A
       CODE:1cb7 41              ??         41h    A
       CODE:1cb8 41              ??         41h    A
       CODE:1cb9 41              ??         41h    A
       CODE:1cba 41              ??         41h    A
       CODE:1cbb 41              ??         41h    A
       CODE:1cbc 41              ??         41h    A
       CODE:1cbd 41              ??         41h    A
       CODE:1cbe 41              ??         41h    A
       CODE:1cbf 41              ??         41h    A
       CODE:1cc0 41              ??         41h    A
       CODE:1cc1 41              ??         41h    A
       CODE:1cc2 41              ??         41h    A
       CODE:1cc3 41              ??         41h    A
       CODE:1cc4 41              ??         41h    A
       CODE:1cc5 41              ??         41h    A
       CODE:1cc6 41              ??         41h    A
       CODE:1cc7 41              ??         41h    A
       CODE:1cc8 41              ??         41h    A
       CODE:1cc9 41              ??         41h    A
       CODE:1cca 41              ??         41h    A
       CODE:1ccb 41              ??         41h    A
       CODE:1ccc 41              ??         41h    A
       CODE:1ccd 41              ??         41h    A
       CODE:1cce 41              ??         41h    A
       CODE:1ccf 41              ??         41h    A
       CODE:1cd0 41              ??         41h    A
       CODE:1cd1 41              ??         41h    A
       CODE:1cd2 41              ??         41h    A
       CODE:1cd3 41              ??         41h    A
       CODE:1cd4 41              ??         41h    A
       CODE:1cd5 41              ??         41h    A
       CODE:1cd6 41              ??         41h    A
       CODE:1cd7 41              ??         41h    A
       CODE:1cd8 41              ??         41h    A
       CODE:1cd9 41              ??         41h    A
       CODE:1cda 41              ??         41h    A
       CODE:1cdb 41              ??         41h    A
       CODE:1cdc 41              ??         41h    A
       CODE:1cdd 41              ??         41h    A
       CODE:1cde 41              ??         41h    A
       CODE:1cdf 41              ??         41h    A
       CODE:1ce0 41              ??         41h    A
       CODE:1ce1 41              ??         41h    A
       CODE:1ce2 41              ??         41h    A
       CODE:1ce3 41              ??         41h    A
       CODE:1ce4 41              ??         41h    A
       CODE:1ce5 41              ??         41h    A
       CODE:1ce6 41              ??         41h    A
       CODE:1ce7 41              ??         41h    A
       CODE:1ce8 41              ??         41h    A
       CODE:1ce9 41              ??         41h    A
       CODE:1cea 41              ??         41h    A
       CODE:1ceb 41              ??         41h    A
       CODE:1cec 41              ??         41h    A
       CODE:1ced 41              ??         41h    A
       CODE:1cee 41              ??         41h    A
       CODE:1cef 41              ??         41h    A
       CODE:1cf0 41              ??         41h    A
       CODE:1cf1 41              ??         41h    A
       CODE:1cf2 41              ??         41h    A
       CODE:1cf3 41              ??         41h    A
       CODE:1cf4 41              ??         41h    A
       CODE:1cf5 41              ??         41h    A
       CODE:1cf6 41              ??         41h    A
       CODE:1cf7 41              ??         41h    A
       CODE:1cf8 41              ??         41h    A
       CODE:1cf9 41              ??         41h    A
       CODE:1cfa 41              ??         41h    A
       CODE:1cfb 41              ??         41h    A
       CODE:1cfc 41              ??         41h    A
       CODE:1cfd 41              ??         41h    A
       CODE:1cfe 41              ??         41h    A
       CODE:1cff 41              ??         41h    A
       CODE:1d00 41              ??         41h    A
       CODE:1d01 41              ??         41h    A
       CODE:1d02 41              ??         41h    A
       CODE:1d03 41              ??         41h    A
       CODE:1d04 41              ??         41h    A
       CODE:1d05 41              ??         41h    A
       CODE:1d06 41              ??         41h    A
       CODE:1d07 41              ??         41h    A
       CODE:1d08 41              ??         41h    A
       CODE:1d09 41              ??         41h    A
       CODE:1d0a 41              ??         41h    A
       CODE:1d0b 41              ??         41h    A
       CODE:1d0c 41              ??         41h    A
       CODE:1d0d 41              ??         41h    A
       CODE:1d0e 41              ??         41h    A
       CODE:1d0f 41              ??         41h    A
       CODE:1d10 41              ??         41h    A
       CODE:1d11 41              ??         41h    A
       CODE:1d12 41              ??         41h    A
       CODE:1d13 41              ??         41h    A
       CODE:1d14 41              ??         41h    A
       CODE:1d15 41              ??         41h    A
       CODE:1d16 41              ??         41h    A
       CODE:1d17 41              ??         41h    A
       CODE:1d18 41              ??         41h    A
       CODE:1d19 41              ??         41h    A
       CODE:1d1a 41              ??         41h    A
       CODE:1d1b 41              ??         41h    A
       CODE:1d1c 41              ??         41h    A
       CODE:1d1d 41              ??         41h    A
       CODE:1d1e 41              ??         41h    A
       CODE:1d1f 41              ??         41h    A
       CODE:1d20 41              ??         41h    A
       CODE:1d21 41              ??         41h    A
       CODE:1d22 41              ??         41h    A
       CODE:1d23 41              ??         41h    A
       CODE:1d24 41              ??         41h    A
       CODE:1d25 41              ??         41h    A
       CODE:1d26 41              ??         41h    A
       CODE:1d27 41              ??         41h    A
       CODE:1d28 41              ??         41h    A
       CODE:1d29 41              ??         41h    A
       CODE:1d2a 41              ??         41h    A
       CODE:1d2b 41              ??         41h    A
       CODE:1d2c 41              ??         41h    A
       CODE:1d2d 41              ??         41h    A
       CODE:1d2e 41              ??         41h    A
       CODE:1d2f 41              ??         41h    A
       CODE:1d30 41              ??         41h    A
       CODE:1d31 41              ??         41h    A
       CODE:1d32 41              ??         41h    A
       CODE:1d33 41              ??         41h    A
       CODE:1d34 41              ??         41h    A
       CODE:1d35 41              ??         41h    A
       CODE:1d36 41              ??         41h    A
       CODE:1d37 41              ??         41h    A
       CODE:1d38 41              ??         41h    A
       CODE:1d39 41              ??         41h    A
       CODE:1d3a 41              ??         41h    A
       CODE:1d3b 41              ??         41h    A
       CODE:1d3c 41              ??         41h    A
       CODE:1d3d 41              ??         41h    A
       CODE:1d3e 41              ??         41h    A
       CODE:1d3f 41              ??         41h    A
       CODE:1d40 41              ??         41h    A
       CODE:1d41 41              ??         41h    A
       CODE:1d42 41              ??         41h    A
       CODE:1d43 41              ??         41h    A
       CODE:1d44 41              ??         41h    A
       CODE:1d45 41              ??         41h    A
       CODE:1d46 41              ??         41h    A
       CODE:1d47 41              ??         41h    A
       CODE:1d48 41              ??         41h    A
       CODE:1d49 41              ??         41h    A
       CODE:1d4a 41              ??         41h    A
       CODE:1d4b 41              ??         41h    A
       CODE:1d4c 41              ??         41h    A
       CODE:1d4d 41              ??         41h    A
       CODE:1d4e 41              ??         41h    A
       CODE:1d4f 41              ??         41h    A
       CODE:1d50 41              ??         41h    A
       CODE:1d51 41              ??         41h    A
       CODE:1d52 41              ??         41h    A
       CODE:1d53 41              ??         41h    A
       CODE:1d54 41              ??         41h    A
       CODE:1d55 41              ??         41h    A
       CODE:1d56 41              ??         41h    A
       CODE:1d57 41              ??         41h    A
       CODE:1d58 41              ??         41h    A
       CODE:1d59 41              ??         41h    A
       CODE:1d5a 41              ??         41h    A
       CODE:1d5b 41              ??         41h    A
       CODE:1d5c 41              ??         41h    A
       CODE:1d5d 41              ??         41h    A
       CODE:1d5e 41              ??         41h    A
       CODE:1d5f 41              ??         41h    A
       CODE:1d60 41              ??         41h    A
       CODE:1d61 41              ??         41h    A
       CODE:1d62 41              ??         41h    A
       CODE:1d63 41              ??         41h    A
       CODE:1d64 41              ??         41h    A
       CODE:1d65 41              ??         41h    A
       CODE:1d66 41              ??         41h    A
       CODE:1d67 41              ??         41h    A
       CODE:1d68 41              ??         41h    A
       CODE:1d69 41              ??         41h    A
       CODE:1d6a 41              ??         41h    A
       CODE:1d6b 41              ??         41h    A
       CODE:1d6c 41              ??         41h    A
       CODE:1d6d 41              ??         41h    A
       CODE:1d6e 41              ??         41h    A
       CODE:1d6f 41              ??         41h    A
       CODE:1d70 41              ??         41h    A
       CODE:1d71 41              ??         41h    A
       CODE:1d72 41              ??         41h    A
       CODE:1d73 41              ??         41h    A
       CODE:1d74 41              ??         41h    A
       CODE:1d75 41              ??         41h    A
       CODE:1d76 41              ??         41h    A
       CODE:1d77 41              ??         41h    A
       CODE:1d78 41              ??         41h    A
       CODE:1d79 41              ??         41h    A
       CODE:1d7a 41              ??         41h    A
       CODE:1d7b 41              ??         41h    A
       CODE:1d7c 41              ??         41h    A
       CODE:1d7d 41              ??         41h    A
       CODE:1d7e 41              ??         41h    A
       CODE:1d7f 41              ??         41h    A
       CODE:1d80 41              ??         41h    A
       CODE:1d81 41              ??         41h    A
       CODE:1d82 41              ??         41h    A
       CODE:1d83 41              ??         41h    A
       CODE:1d84 41              ??         41h    A
       CODE:1d85 41              ??         41h    A
       CODE:1d86 41              ??         41h    A
       CODE:1d87 41              ??         41h    A
       CODE:1d88 41              ??         41h    A
       CODE:1d89 41              ??         41h    A
       CODE:1d8a 41              ??         41h    A
       CODE:1d8b 41              ??         41h    A
       CODE:1d8c 41              ??         41h    A
       CODE:1d8d 41              ??         41h    A
       CODE:1d8e 41              ??         41h    A
       CODE:1d8f 41              ??         41h    A
       CODE:1d90 41              ??         41h    A
       CODE:1d91 41              ??         41h    A
       CODE:1d92 41              ??         41h    A
       CODE:1d93 41              ??         41h    A
       CODE:1d94 41              ??         41h    A
       CODE:1d95 41              ??         41h    A
       CODE:1d96 41              ??         41h    A
       CODE:1d97 41              ??         41h    A
       CODE:1d98 41              ??         41h    A
       CODE:1d99 41              ??         41h    A
       CODE:1d9a 41              ??         41h    A
       CODE:1d9b 41              ??         41h    A
       CODE:1d9c 41              ??         41h    A
       CODE:1d9d 41              ??         41h    A
       CODE:1d9e 41              ??         41h    A
       CODE:1d9f 41              ??         41h    A
       CODE:1da0 41              ??         41h    A
       CODE:1da1 41              ??         41h    A
       CODE:1da2 41              ??         41h    A
       CODE:1da3 41              ??         41h    A
       CODE:1da4 41              ??         41h    A
       CODE:1da5 41              ??         41h    A
       CODE:1da6 41              ??         41h    A
       CODE:1da7 41              ??         41h    A
       CODE:1da8 41              ??         41h    A
       CODE:1da9 41              ??         41h    A
       CODE:1daa 41              ??         41h    A
       CODE:1dab 41              ??         41h    A
       CODE:1dac 41              ??         41h    A
       CODE:1dad 41              ??         41h    A
       CODE:1dae 41              ??         41h    A
       CODE:1daf 41              ??         41h    A
       CODE:1db0 41              ??         41h    A
       CODE:1db1 41              ??         41h    A
       CODE:1db2 41              ??         41h    A
       CODE:1db3 41              ??         41h    A
       CODE:1db4 41              ??         41h    A
       CODE:1db5 41              ??         41h    A
       CODE:1db6 41              ??         41h    A
       CODE:1db7 41              ??         41h    A
       CODE:1db8 41              ??         41h    A
       CODE:1db9 41              ??         41h    A
       CODE:1dba 41              ??         41h    A
       CODE:1dbb 41              ??         41h    A
       CODE:1dbc 41              ??         41h    A
       CODE:1dbd 41              ??         41h    A
       CODE:1dbe 41              ??         41h    A
       CODE:1dbf 41              ??         41h    A
       CODE:1dc0 41              ??         41h    A
       CODE:1dc1 41              ??         41h    A
       CODE:1dc2 41              ??         41h    A
       CODE:1dc3 41              ??         41h    A
       CODE:1dc4 41              ??         41h    A
       CODE:1dc5 41              ??         41h    A
       CODE:1dc6 41              ??         41h    A
       CODE:1dc7 41              ??         41h    A
       CODE:1dc8 41              ??         41h    A
       CODE:1dc9 41              ??         41h    A
       CODE:1dca 41              ??         41h    A
       CODE:1dcb 41              ??         41h    A
       CODE:1dcc 41              ??         41h    A
       CODE:1dcd 41              ??         41h    A
       CODE:1dce 41              ??         41h    A
       CODE:1dcf 41              ??         41h    A
       CODE:1dd0 41              ??         41h    A
       CODE:1dd1 41              ??         41h    A
       CODE:1dd2 41              ??         41h    A
       CODE:1dd3 41              ??         41h    A
       CODE:1dd4 41              ??         41h    A
       CODE:1dd5 41              ??         41h    A
       CODE:1dd6 41              ??         41h    A
       CODE:1dd7 41              ??         41h    A
       CODE:1dd8 41              ??         41h    A
       CODE:1dd9 41              ??         41h    A
       CODE:1dda 41              ??         41h    A
       CODE:1ddb 41              ??         41h    A
       CODE:1ddc 41              ??         41h    A
       CODE:1ddd 41              ??         41h    A
       CODE:1dde 41              ??         41h    A
       CODE:1ddf 41              ??         41h    A
       CODE:1de0 41              ??         41h    A
       CODE:1de1 41              ??         41h    A
       CODE:1de2 41              ??         41h    A
       CODE:1de3 41              ??         41h    A
       CODE:1de4 41              ??         41h    A
       CODE:1de5 41              ??         41h    A
       CODE:1de6 41              ??         41h    A
       CODE:1de7 41              ??         41h    A
       CODE:1de8 41              ??         41h    A
       CODE:1de9 41              ??         41h    A
       CODE:1dea 41              ??         41h    A
       CODE:1deb 41              ??         41h    A
       CODE:1dec 41              ??         41h    A
       CODE:1ded 41              ??         41h    A
       CODE:1dee 41              ??         41h    A
       CODE:1def 41              ??         41h    A
       CODE:1df0 41              ??         41h    A
       CODE:1df1 41              ??         41h    A
       CODE:1df2 41              ??         41h    A
       CODE:1df3 41              ??         41h    A
       CODE:1df4 41              ??         41h    A
       CODE:1df5 41              ??         41h    A
       CODE:1df6 41              ??         41h    A
       CODE:1df7 41              ??         41h    A
       CODE:1df8 41              ??         41h    A
       CODE:1df9 41              ??         41h    A
       CODE:1dfa 41              ??         41h    A
       CODE:1dfb 41              ??         41h    A
       CODE:1dfc 41              ??         41h    A
       CODE:1dfd 41              ??         41h    A
       CODE:1dfe 41              ??         41h    A
       CODE:1dff 41              ??         41h    A
       CODE:1e00 41              ??         41h    A
       CODE:1e01 41              ??         41h    A
       CODE:1e02 41              ??         41h    A
       CODE:1e03 41              ??         41h    A
       CODE:1e04 41              ??         41h    A
       CODE:1e05 41              ??         41h    A
       CODE:1e06 41              ??         41h    A
       CODE:1e07 41              ??         41h    A
       CODE:1e08 41              ??         41h    A
       CODE:1e09 41              ??         41h    A
       CODE:1e0a 41              ??         41h    A
       CODE:1e0b 41              ??         41h    A
       CODE:1e0c 41              ??         41h    A
       CODE:1e0d 41              ??         41h    A
       CODE:1e0e 41              ??         41h    A
       CODE:1e0f 41              ??         41h    A
       CODE:1e10 41              ??         41h    A
       CODE:1e11 41              ??         41h    A
       CODE:1e12 41              ??         41h    A
       CODE:1e13 41              ??         41h    A
       CODE:1e14 41              ??         41h    A
       CODE:1e15 41              ??         41h    A
       CODE:1e16 41              ??         41h    A
       CODE:1e17 41              ??         41h    A
       CODE:1e18 41              ??         41h    A
       CODE:1e19 41              ??         41h    A
       CODE:1e1a 41              ??         41h    A
       CODE:1e1b 41              ??         41h    A
       CODE:1e1c 41              ??         41h    A
       CODE:1e1d 41              ??         41h    A
       CODE:1e1e 41              ??         41h    A
       CODE:1e1f 41              ??         41h    A
       CODE:1e20 41              ??         41h    A
       CODE:1e21 41              ??         41h    A
       CODE:1e22 41              ??         41h    A
       CODE:1e23 41              ??         41h    A
       CODE:1e24 41              ??         41h    A
       CODE:1e25 41              ??         41h    A
       CODE:1e26 41              ??         41h    A
       CODE:1e27 41              ??         41h    A
       CODE:1e28 41              ??         41h    A
       CODE:1e29 41              ??         41h    A
       CODE:1e2a 41              ??         41h    A
       CODE:1e2b 41              ??         41h    A
       CODE:1e2c 41              ??         41h    A
       CODE:1e2d 41              ??         41h    A
       CODE:1e2e 41              ??         41h    A
       CODE:1e2f 41              ??         41h    A
       CODE:1e30 41              ??         41h    A
       CODE:1e31 41              ??         41h    A
       CODE:1e32 41              ??         41h    A
       CODE:1e33 41              ??         41h    A
       CODE:1e34 41              ??         41h    A
       CODE:1e35 41              ??         41h    A
       CODE:1e36 41              ??         41h    A
       CODE:1e37 41              ??         41h    A
       CODE:1e38 41              ??         41h    A
       CODE:1e39 41              ??         41h    A
       CODE:1e3a 41              ??         41h    A
       CODE:1e3b 41              ??         41h    A
       CODE:1e3c 41              ??         41h    A
       CODE:1e3d 41              ??         41h    A
       CODE:1e3e 41              ??         41h    A
       CODE:1e3f 41              ??         41h    A
       CODE:1e40 41              ??         41h    A
       CODE:1e41 41              ??         41h    A
       CODE:1e42 41              ??         41h    A
       CODE:1e43 41              ??         41h    A
       CODE:1e44 41              ??         41h    A
       CODE:1e45 41              ??         41h    A
       CODE:1e46 41              ??         41h    A
       CODE:1e47 41              ??         41h    A
       CODE:1e48 41              ??         41h    A
       CODE:1e49 41              ??         41h    A
       CODE:1e4a 41              ??         41h    A
       CODE:1e4b 41              ??         41h    A
       CODE:1e4c 41              ??         41h    A
       CODE:1e4d 41              ??         41h    A
       CODE:1e4e 41              ??         41h    A
       CODE:1e4f 41              ??         41h    A
       CODE:1e50 41              ??         41h    A
       CODE:1e51 41              ??         41h    A
       CODE:1e52 41              ??         41h    A
       CODE:1e53 41              ??         41h    A
       CODE:1e54 41              ??         41h    A
       CODE:1e55 41              ??         41h    A
       CODE:1e56 41              ??         41h    A
       CODE:1e57 41              ??         41h    A
       CODE:1e58 41              ??         41h    A
       CODE:1e59 41              ??         41h    A
       CODE:1e5a 41              ??         41h    A
       CODE:1e5b 41              ??         41h    A
       CODE:1e5c 41              ??         41h    A
       CODE:1e5d 41              ??         41h    A
       CODE:1e5e 41              ??         41h    A
       CODE:1e5f 41              ??         41h    A
       CODE:1e60 41              ??         41h    A
       CODE:1e61 41              ??         41h    A
       CODE:1e62 41              ??         41h    A
       CODE:1e63 41              ??         41h    A
       CODE:1e64 41              ??         41h    A
       CODE:1e65 41              ??         41h    A
       CODE:1e66 41              ??         41h    A
       CODE:1e67 41              ??         41h    A
       CODE:1e68 41              ??         41h    A
       CODE:1e69 41              ??         41h    A
       CODE:1e6a 41              ??         41h    A
       CODE:1e6b 41              ??         41h    A
       CODE:1e6c 41              ??         41h    A
       CODE:1e6d 41              ??         41h    A
       CODE:1e6e 41              ??         41h    A
       CODE:1e6f 41              ??         41h    A
       CODE:1e70 41              ??         41h    A
       CODE:1e71 41              ??         41h    A
       CODE:1e72 41              ??         41h    A
       CODE:1e73 41              ??         41h    A
       CODE:1e74 41              ??         41h    A
       CODE:1e75 41              ??         41h    A
       CODE:1e76 41              ??         41h    A
       CODE:1e77 41              ??         41h    A
       CODE:1e78 41              ??         41h    A
       CODE:1e79 41              ??         41h    A
       CODE:1e7a 41              ??         41h    A
       CODE:1e7b 41              ??         41h    A
       CODE:1e7c 41              ??         41h    A
       CODE:1e7d 41              ??         41h    A
       CODE:1e7e 41              ??         41h    A
       CODE:1e7f 41              ??         41h    A
       CODE:1e80 41              ??         41h    A
       CODE:1e81 41              ??         41h    A
       CODE:1e82 41              ??         41h    A
       CODE:1e83 41              ??         41h    A
       CODE:1e84 41              ??         41h    A
       CODE:1e85 41              ??         41h    A
       CODE:1e86 41              ??         41h    A
       CODE:1e87 41              ??         41h    A
       CODE:1e88 41              ??         41h    A
       CODE:1e89 41              ??         41h    A
       CODE:1e8a 41              ??         41h    A
       CODE:1e8b 41              ??         41h    A
       CODE:1e8c 41              ??         41h    A
       CODE:1e8d 41              ??         41h    A
       CODE:1e8e 41              ??         41h    A
       CODE:1e8f 41              ??         41h    A
       CODE:1e90 41              ??         41h    A
       CODE:1e91 41              ??         41h    A
       CODE:1e92 41              ??         41h    A
       CODE:1e93 41              ??         41h    A
       CODE:1e94 41              ??         41h    A
       CODE:1e95 41              ??         41h    A
       CODE:1e96 41              ??         41h    A
       CODE:1e97 41              ??         41h    A
       CODE:1e98 41              ??         41h    A
       CODE:1e99 41              ??         41h    A
       CODE:1e9a 41              ??         41h    A
       CODE:1e9b 41              ??         41h    A
       CODE:1e9c 41              ??         41h    A
       CODE:1e9d 41              ??         41h    A
       CODE:1e9e 41              ??         41h    A
       CODE:1e9f 41              ??         41h    A
       CODE:1ea0 41              ??         41h    A
       CODE:1ea1 41              ??         41h    A
       CODE:1ea2 41              ??         41h    A
       CODE:1ea3 41              ??         41h    A
       CODE:1ea4 41              ??         41h    A
       CODE:1ea5 41              ??         41h    A
       CODE:1ea6 41              ??         41h    A
       CODE:1ea7 41              ??         41h    A
       CODE:1ea8 41              ??         41h    A
       CODE:1ea9 41              ??         41h    A
       CODE:1eaa 41              ??         41h    A
       CODE:1eab 41              ??         41h    A
       CODE:1eac 41              ??         41h    A
       CODE:1ead 41              ??         41h    A
       CODE:1eae 41              ??         41h    A
       CODE:1eaf 41              ??         41h    A
       CODE:1eb0 41              ??         41h    A
       CODE:1eb1 41              ??         41h    A
       CODE:1eb2 41              ??         41h    A
       CODE:1eb3 41              ??         41h    A
       CODE:1eb4 41              ??         41h    A
       CODE:1eb5 41              ??         41h    A
       CODE:1eb6 41              ??         41h    A
       CODE:1eb7 41              ??         41h    A
       CODE:1eb8 41              ??         41h    A
       CODE:1eb9 41              ??         41h    A
       CODE:1eba 41              ??         41h    A
       CODE:1ebb 41              ??         41h    A
       CODE:1ebc 41              ??         41h    A
       CODE:1ebd 41              ??         41h    A
       CODE:1ebe 41              ??         41h    A
       CODE:1ebf 41              ??         41h    A
       CODE:1ec0 41              ??         41h    A
       CODE:1ec1 41              ??         41h    A
       CODE:1ec2 41              ??         41h    A
       CODE:1ec3 41              ??         41h    A
       CODE:1ec4 41              ??         41h    A
       CODE:1ec5 41              ??         41h    A
       CODE:1ec6 41              ??         41h    A
       CODE:1ec7 41              ??         41h    A
       CODE:1ec8 41              ??         41h    A
       CODE:1ec9 41              ??         41h    A
       CODE:1eca 41              ??         41h    A
       CODE:1ecb 41              ??         41h    A
       CODE:1ecc 41              ??         41h    A
       CODE:1ecd 41              ??         41h    A
       CODE:1ece 41              ??         41h    A
       CODE:1ecf 41              ??         41h    A
       CODE:1ed0 41              ??         41h    A
       CODE:1ed1 41              ??         41h    A
       CODE:1ed2 41              ??         41h    A
       CODE:1ed3 41              ??         41h    A
       CODE:1ed4 41              ??         41h    A
       CODE:1ed5 41              ??         41h    A
       CODE:1ed6 41              ??         41h    A
       CODE:1ed7 41              ??         41h    A
       CODE:1ed8 41              ??         41h    A
       CODE:1ed9 41              ??         41h    A
       CODE:1eda 41              ??         41h    A
       CODE:1edb 41              ??         41h    A
       CODE:1edc 41              ??         41h    A
       CODE:1edd 41              ??         41h    A
       CODE:1ede 41              ??         41h    A
       CODE:1edf 41              ??         41h    A
       CODE:1ee0 41              ??         41h    A
       CODE:1ee1 41              ??         41h    A
       CODE:1ee2 41              ??         41h    A
       CODE:1ee3 41              ??         41h    A
       CODE:1ee4 41              ??         41h    A
       CODE:1ee5 41              ??         41h    A
       CODE:1ee6 41              ??         41h    A
       CODE:1ee7 41              ??         41h    A
       CODE:1ee8 41              ??         41h    A
       CODE:1ee9 41              ??         41h    A
       CODE:1eea 41              ??         41h    A
       CODE:1eeb 41              ??         41h    A
       CODE:1eec 41              ??         41h    A
       CODE:1eed 41              ??         41h    A
       CODE:1eee 41              ??         41h    A
       CODE:1eef 41              ??         41h    A
       CODE:1ef0 41              ??         41h    A
       CODE:1ef1 41              ??         41h    A
       CODE:1ef2 41              ??         41h    A
       CODE:1ef3 41              ??         41h    A
       CODE:1ef4 41              ??         41h    A
       CODE:1ef5 41              ??         41h    A
       CODE:1ef6 41              ??         41h    A
       CODE:1ef7 41              ??         41h    A
       CODE:1ef8 41              ??         41h    A
       CODE:1ef9 41              ??         41h    A
       CODE:1efa 41              ??         41h    A
       CODE:1efb 41              ??         41h    A
       CODE:1efc 41              ??         41h    A
       CODE:1efd 41              ??         41h    A
       CODE:1efe 41              ??         41h    A
       CODE:1eff 41              ??         41h    A
       CODE:1f00 41              ??         41h    A
       CODE:1f01 41              ??         41h    A
       CODE:1f02 41              ??         41h    A
       CODE:1f03 41              ??         41h    A
       CODE:1f04 41              ??         41h    A
       CODE:1f05 41              ??         41h    A
       CODE:1f06 41              ??         41h    A
       CODE:1f07 41              ??         41h    A
       CODE:1f08 41              ??         41h    A
       CODE:1f09 41              ??         41h    A
       CODE:1f0a 41              ??         41h    A
       CODE:1f0b 41              ??         41h    A
       CODE:1f0c 41              ??         41h    A
       CODE:1f0d 41              ??         41h    A
       CODE:1f0e 41              ??         41h    A
       CODE:1f0f 41              ??         41h    A
       CODE:1f10 41              ??         41h    A
       CODE:1f11 41              ??         41h    A
       CODE:1f12 41              ??         41h    A
       CODE:1f13 41              ??         41h    A
       CODE:1f14 41              ??         41h    A
       CODE:1f15 41              ??         41h    A
       CODE:1f16 41              ??         41h    A
       CODE:1f17 41              ??         41h    A
       CODE:1f18 41              ??         41h    A
       CODE:1f19 41              ??         41h    A
       CODE:1f1a 41              ??         41h    A
       CODE:1f1b 41              ??         41h    A
       CODE:1f1c 41              ??         41h    A
       CODE:1f1d 41              ??         41h    A
       CODE:1f1e 41              ??         41h    A
       CODE:1f1f 41              ??         41h    A
       CODE:1f20 41              ??         41h    A
       CODE:1f21 41              ??         41h    A
       CODE:1f22 41              ??         41h    A
       CODE:1f23 41              ??         41h    A
       CODE:1f24 41              ??         41h    A
       CODE:1f25 41              ??         41h    A
       CODE:1f26 41              ??         41h    A
       CODE:1f27 41              ??         41h    A
       CODE:1f28 41              ??         41h    A
       CODE:1f29 41              ??         41h    A
       CODE:1f2a 41              ??         41h    A
       CODE:1f2b 41              ??         41h    A
       CODE:1f2c 41              ??         41h    A
       CODE:1f2d 41              ??         41h    A
       CODE:1f2e 41              ??         41h    A
       CODE:1f2f 41              ??         41h    A
       CODE:1f30 41              ??         41h    A
       CODE:1f31 41              ??         41h    A
       CODE:1f32 41              ??         41h    A
       CODE:1f33 41              ??         41h    A
       CODE:1f34 41              ??         41h    A
       CODE:1f35 41              ??         41h    A
       CODE:1f36 41              ??         41h    A
       CODE:1f37 41              ??         41h    A
       CODE:1f38 41              ??         41h    A
       CODE:1f39 41              ??         41h    A
       CODE:1f3a 41              ??         41h    A
       CODE:1f3b 41              ??         41h    A
       CODE:1f3c 41              ??         41h    A
       CODE:1f3d 41              ??         41h    A
       CODE:1f3e 41              ??         41h    A
       CODE:1f3f 41              ??         41h    A
       CODE:1f40 41              ??         41h    A
       CODE:1f41 41              ??         41h    A
       CODE:1f42 41              ??         41h    A
       CODE:1f43 41              ??         41h    A
       CODE:1f44 41              ??         41h    A
       CODE:1f45 41              ??         41h    A
       CODE:1f46 41              ??         41h    A
       CODE:1f47 41              ??         41h    A
       CODE:1f48 41              ??         41h    A
       CODE:1f49 41              ??         41h    A
       CODE:1f4a 41              ??         41h    A
       CODE:1f4b 41              ??         41h    A
       CODE:1f4c 41              ??         41h    A
       CODE:1f4d 41              ??         41h    A
       CODE:1f4e 41              ??         41h    A
       CODE:1f4f 41              ??         41h    A
       CODE:1f50 41              ??         41h    A
       CODE:1f51 41              ??         41h    A
       CODE:1f52 41              ??         41h    A
       CODE:1f53 41              ??         41h    A
       CODE:1f54 41              ??         41h    A
       CODE:1f55 41              ??         41h    A
       CODE:1f56 41              ??         41h    A
       CODE:1f57 41              ??         41h    A
       CODE:1f58 41              ??         41h    A
       CODE:1f59 41              ??         41h    A
       CODE:1f5a 41              ??         41h    A
       CODE:1f5b 41              ??         41h    A
       CODE:1f5c 41              ??         41h    A
       CODE:1f5d 41              ??         41h    A
       CODE:1f5e 41              ??         41h    A
       CODE:1f5f 41              ??         41h    A
       CODE:1f60 41              ??         41h    A
       CODE:1f61 41              ??         41h    A
       CODE:1f62 41              ??         41h    A
       CODE:1f63 41              ??         41h    A
       CODE:1f64 41              ??         41h    A
       CODE:1f65 41              ??         41h    A
       CODE:1f66 41              ??         41h    A
       CODE:1f67 41              ??         41h    A
       CODE:1f68 41              ??         41h    A
       CODE:1f69 41              ??         41h    A
       CODE:1f6a 41              ??         41h    A
       CODE:1f6b 41              ??         41h    A
       CODE:1f6c 41              ??         41h    A
       CODE:1f6d 41              ??         41h    A
       CODE:1f6e 41              ??         41h    A
       CODE:1f6f 41              ??         41h    A
       CODE:1f70 41              ??         41h    A
       CODE:1f71 41              ??         41h    A
       CODE:1f72 41              ??         41h    A
       CODE:1f73 41              ??         41h    A
       CODE:1f74 41              ??         41h    A
       CODE:1f75 41              ??         41h    A
       CODE:1f76 41              ??         41h    A
       CODE:1f77 41              ??         41h    A
       CODE:1f78 41              ??         41h    A
       CODE:1f79 41              ??         41h    A
       CODE:1f7a 41              ??         41h    A
       CODE:1f7b 41              ??         41h    A
       CODE:1f7c 41              ??         41h    A
       CODE:1f7d 41              ??         41h    A
       CODE:1f7e 41              ??         41h    A
       CODE:1f7f 41              ??         41h    A
       CODE:1f80 41              ??         41h    A
       CODE:1f81 41              ??         41h    A
       CODE:1f82 41              ??         41h    A
       CODE:1f83 41              ??         41h    A
       CODE:1f84 41              ??         41h    A
       CODE:1f85 41              ??         41h    A
       CODE:1f86 41              ??         41h    A
       CODE:1f87 41              ??         41h    A
       CODE:1f88 41              ??         41h    A
       CODE:1f89 41              ??         41h    A
       CODE:1f8a 41              ??         41h    A
       CODE:1f8b 41              ??         41h    A
       CODE:1f8c 41              ??         41h    A
       CODE:1f8d 41              ??         41h    A
       CODE:1f8e 41              ??         41h    A
       CODE:1f8f 41              ??         41h    A
       CODE:1f90 41              ??         41h    A
       CODE:1f91 41              ??         41h    A
       CODE:1f92 41              ??         41h    A
       CODE:1f93 41              ??         41h    A
       CODE:1f94 41              ??         41h    A
       CODE:1f95 41              ??         41h    A
       CODE:1f96 41              ??         41h    A
       CODE:1f97 41              ??         41h    A
       CODE:1f98 41              ??         41h    A
       CODE:1f99 41              ??         41h    A
       CODE:1f9a 41              ??         41h    A
       CODE:1f9b 41              ??         41h    A
       CODE:1f9c 41              ??         41h    A
       CODE:1f9d 41              ??         41h    A
       CODE:1f9e 41              ??         41h    A
       CODE:1f9f 41              ??         41h    A
       CODE:1fa0 41              ??         41h    A
       CODE:1fa1 41              ??         41h    A
       CODE:1fa2 41              ??         41h    A
       CODE:1fa3 41              ??         41h    A
       CODE:1fa4 41              ??         41h    A
       CODE:1fa5 41              ??         41h    A
       CODE:1fa6 41              ??         41h    A
       CODE:1fa7 41              ??         41h    A
       CODE:1fa8 41              ??         41h    A
       CODE:1fa9 41              ??         41h    A
       CODE:1faa 41              ??         41h    A
       CODE:1fab 41              ??         41h    A
       CODE:1fac 41              ??         41h    A
       CODE:1fad 41              ??         41h    A
       CODE:1fae 41              ??         41h    A
       CODE:1faf 41              ??         41h    A
       CODE:1fb0 41              ??         41h    A
       CODE:1fb1 41              ??         41h    A
       CODE:1fb2 41              ??         41h    A
       CODE:1fb3 41              ??         41h    A
       CODE:1fb4 41              ??         41h    A
       CODE:1fb5 41              ??         41h    A
       CODE:1fb6 41              ??         41h    A
       CODE:1fb7 41              ??         41h    A
       CODE:1fb8 41              ??         41h    A
       CODE:1fb9 41              ??         41h    A
       CODE:1fba 41              ??         41h    A
       CODE:1fbb 41              ??         41h    A
       CODE:1fbc 41              ??         41h    A
       CODE:1fbd 41              ??         41h    A
       CODE:1fbe 41              ??         41h    A
       CODE:1fbf 41              ??         41h    A
       CODE:1fc0 41              ??         41h    A
       CODE:1fc1 41              ??         41h    A
       CODE:1fc2 41              ??         41h    A
       CODE:1fc3 41              ??         41h    A
       CODE:1fc4 41              ??         41h    A
       CODE:1fc5 41              ??         41h    A
       CODE:1fc6 41              ??         41h    A
       CODE:1fc7 41              ??         41h    A
       CODE:1fc8 41              ??         41h    A
       CODE:1fc9 41              ??         41h    A
       CODE:1fca 41              ??         41h    A
       CODE:1fcb 41              ??         41h    A
       CODE:1fcc 41              ??         41h    A
       CODE:1fcd 41              ??         41h    A
       CODE:1fce 41              ??         41h    A
       CODE:1fcf 41              ??         41h    A
       CODE:1fd0 41              ??         41h    A
       CODE:1fd1 41              ??         41h    A
       CODE:1fd2 41              ??         41h    A
       CODE:1fd3 41              ??         41h    A
       CODE:1fd4 41              ??         41h    A
       CODE:1fd5 41              ??         41h    A
       CODE:1fd6 41              ??         41h    A
       CODE:1fd7 41              ??         41h    A
       CODE:1fd8 41              ??         41h    A
       CODE:1fd9 41              ??         41h    A
       CODE:1fda 41              ??         41h    A
       CODE:1fdb 41              ??         41h    A
       CODE:1fdc 41              ??         41h    A
       CODE:1fdd 41              ??         41h    A
       CODE:1fde 41              ??         41h    A
       CODE:1fdf 41              ??         41h    A
       CODE:1fe0 41              ??         41h    A
       CODE:1fe1 41              ??         41h    A
       CODE:1fe2 41              ??         41h    A
       CODE:1fe3 41              ??         41h    A
       CODE:1fe4 41              ??         41h    A
       CODE:1fe5 41              ??         41h    A
       CODE:1fe6 41              ??         41h    A
       CODE:1fe7 41              ??         41h    A
       CODE:1fe8 41              ??         41h    A
       CODE:1fe9 41              ??         41h    A
       CODE:1fea 41              ??         41h    A
       CODE:1feb 41              ??         41h    A
       CODE:1fec 41              ??         41h    A
       CODE:1fed 41              ??         41h    A
       CODE:1fee 41              ??         41h    A
       CODE:1fef 41              ??         41h    A
       CODE:1ff0 41              ??         41h    A
       CODE:1ff1 41              ??         41h    A
       CODE:1ff2 41              ??         41h    A
       CODE:1ff3 41              ??         41h    A
       CODE:1ff4 41              ??         41h    A
       CODE:1ff5 41              ??         41h    A
       CODE:1ff6 41              ??         41h    A
       CODE:1ff7 41              ??         41h    A
       CODE:1ff8 41              ??         41h    A
       CODE:1ff9 41              ??         41h    A
       CODE:1ffa 41              ??         41h    A
       CODE:1ffb 41              ??         41h    A
       CODE:1ffc 41              ??         41h    A
       CODE:1ffd 41              ??         41h    A
       CODE:1ffe 41              ??         41h    A
       CODE:1fff 41              ??         41h    A
                             //
                             // REG_BANK_0 
                             // CODE: INTMEM:00-INTMEM:07
                             //
                             BANK0_R0
       INTMEM:00                 ??         ??
                             BANK0_R1
       INTMEM:01                 ??         ??
                             BANK0_R2
       INTMEM:02                 ??         ??
                             BANK0_R3
       INTMEM:03                 ??         ??
                             BANK0_R4
       INTMEM:04                 ??         ??
                             BANK0_R5
       INTMEM:05                 ??         ??
                             BANK0_R6
       INTMEM:06                 ??         ??
                             BANK0_R7
       INTMEM:07                 ??         ??
                             //
                             // STACK 
                             // CODE: INTMEM:08-INTMEM:17
                             //
       INTMEM:08                 ??         ??
       INTMEM:09                 ??         ??
       INTMEM:0a                 ??         ??
       INTMEM:0b                 ??         ??
       INTMEM:0c                 ??         ??
       INTMEM:0d                 ??         ??
       INTMEM:0e                 ??         ??
       INTMEM:0f                 ??         ??
       INTMEM:10                 ??         ??
       INTMEM:11                 ??         ??
       INTMEM:12                 ??         ??
       INTMEM:13                 ??         ??
       INTMEM:14                 ??         ??
       INTMEM:15                 ??         ??
       INTMEM:16                 ??         ??
       INTMEM:17                 ??         ??
                             //
                             // REG_BANK_1 
                             // CODE: INTMEM:18-INTMEM:1f
                             //
                             BANK1_R0
       INTMEM:18                 ??         ??
                             BANK1_R1
       INTMEM:19                 ??         ??
                             BANK1_R2
       INTMEM:1a                 ??         ??
                             BANK1_R3
       INTMEM:1b                 ??         ??
                             BANK1_R4
       INTMEM:1c                 ??         ??
                             BANK1_R5
       INTMEM:1d                 ??         ??
                             BANK1_R6
       INTMEM:1e                 ??         ??
                             BANK1_R7
       INTMEM:1f                 ??         ??
                             //
                             // INTMEM 
                             // CODE: INTMEM:20-INTMEM:ff
                             //
                             DAT_INTMEM_20                                   XREF[5]:     TIMIRQ:000b(RW), TIMIRQ:000c(R), 
                                                                                          TIMIRQ:0012(W), TIMIRQ:003c(RW), 
                                                                                          TIMIRQ:00b3(W)  
       INTMEM:20                 undefined1 ??
                             DAT_INTMEM_21                                   XREF[1]:     RESET:02b9(RW)  
       INTMEM:21                 undefined1 ??
                             AC?                                             XREF[30]:    TIMIRQ:0083(R), RESET:01c2(R), 
                                                                                          RESET:01c5(W), RESET:01ca(W), 
                                                                                          RESET:01d6(R), RESET:01d9(W), 
                                                                                          RESET:04d1(R), RESET:0542(R), 
                                                                                          RESET:0544(W), 
                                                                                          FUN_CODE_05a7:05a9(R), 
                                                                                          FUN_CODE_0800:0818(R), 
                                                                                          FUN_CODE_0800:0898(R), 
                                                                                          idleValve:091c(R), 
                                                                                          idleValve:0937(R), 
                                                                                          idleValve:09c5(R), 
                                                                                          idleValve:0a30(R), 
                                                                                          idleValve:0a5b(R), 
                                                                                          idleValve:0b66(R), RESET:0d24(R), 
                                                                                          RESET:0d27(W), [more]
       INTMEM:22                 undefined1 ??
                             DAT_INTMEM_23                                   XREF[11]:    RESET:00dd(W), RESET:01ef(R), 
                                                                                          RESET:046c(R), 
                                                                                          FUN_CODE_060a:0656(R), 
                                                                                          FUN_CODE_0678:067d(R), 
                                                                                          idleValve:08dc(R), 
                                                                                          idleValve:08e9(R), 
                                                                                          idleValve:09e0(R), 
                                                                                          300Lookup_INT23:0c2d(R), 
                                                                                          RESET:0d2b(R), RESET:0d2d(W)  
       INTMEM:23                 undefined1 ??
                             DAT_INTMEM_24                                   XREF[5]:     RESET:00dd(W), RESET:0466(R), 
                                                                                          idleValve:0af2(R), RESET:0d1c(W), 
                                                                                          RESET:0d29(R)  
       INTMEM:24                 undefined1 ??
                             DAT_INTMEM_25                                   XREF[2]:     TIMIRQ:0072(W), RESET:0c95(R)  
       INTMEM:25                 undefined1 ??
                             DAT_INTMEM_26                                   XREF[2]:     TIMIRQ:0075(W), RESET:0c9b(R)  
       INTMEM:26                 undefined1 ??
                             DAT_INTMEM_27                                   XREF[3]:     TIMIRQ:006d(W), TIMIRQ:007a(R), 
                                                                                          TIMIRQ:007e(W)  
       INTMEM:27                 undefined1 ??
                             DAT_INTMEM_28                                   XREF[3]:     TIMIRQ:0059(R), TIMIRQ:008e(R), 
                                                                                          TIMIRQ:008f(RW)  
       INTMEM:28                 undefined1 ??
                             DAT_INTMEM_29                                   XREF[4]:     RESET:041a(R), RESET:04ac(W), 
                                                                                          RESET:0526(RW), RESET:0527(R)  
       INTMEM:29                 undefined1 ??
                             DAT_INTMEM_2a                                   XREF[2]:     TIMIRQ:00a9(R), RESET:04fe(W)  
       INTMEM:2a                 undefined1 ??
                             DAT_INTMEM_2b                                   XREF[2]:     TIMIRQ:009f(R), RESET:04f8(W)  
       INTMEM:2b                 undefined1 ??
                             DAT_INTMEM_2c                                   XREF[2]:     TIMIRQ:009c(R), RESET:04ed(W)  
       INTMEM:2c                 undefined1 ??
                             DAT_INTMEM_2d                                   XREF[5]:     RESET:023d(W), RESET:028d(R), 
                                                                                          RESET:0293(W), RESET:0554(R), 
                                                                                          RESET:0558(W)  
       INTMEM:2d                 undefined1 ??
                             DAT_INTMEM_2e                                   XREF[3]:     RESET:0295(W), RESET:0550(R), 
                                                                                          RESET:0558(W)  
       INTMEM:2e                 undefined1 ??
                             DAT_INTMEM_2f                                   XREF[3]:     RESET:0153(W), RESET:052f(R), 
                                                                                          RESET:0533(W)  
       INTMEM:2f                 undefined1 ??
                             DAT_INTMEM_30                                   XREF[5]:     RESET:015e(W), RESET:0184(R), 
                                                                                          RESET:018b(R), RESET:0549(R), 
                                                                                          RESET:054d(W)  
       INTMEM:30                 undefined1 ??
                             DAT_INTMEM_31                                   XREF[2]:     RESET:0164(W), RESET:0547(R)  
       INTMEM:31                 undefined1 ??
                             DAT_INTMEM_32                                   XREF[7]:     RESET:00ee(W), RESET:0216(RW), 
                                                                                          RESET:0236(W), RESET:02e2(R), 
                                                                                          RESET:02f0(R), RESET:02f5(R), 
                                                                                          FUN_CODE_06a6:06aa(R)  
       INTMEM:32                 undefined1 ??
                             DAT_INTMEM_33                                   XREF[23]:    RESET:00f1(W), RESET:046f(R), 
                                                                                          RESET:0474(W), RESET:0478(R), 
                                                                                          RESET:0489(R), RESET:048c(W), 
                                                                                          RESET:049a(R), RESET:049d(W), 
                                                                                          RESET:04a0(R), idleValve:08df(R), 
                                                                                          idleValve:08e4(W), 
                                                                                          idleValve:08f0(R), 
                                                                                          idleValve:0904(R), 
                                                                                          idleValve:0907(W), 
                                                                                          idleValve:092b(R), 
                                                                                          idleValve:092e(W), 
                                                                                          idleValve:0940(R), 
                                                                                          idleValve:096f(W), 
                                                                                          idleValve:09b3(R), 
                                                                                          idleValve:09b6(W), [more]
       INTMEM:33                 undefined1 ??
                             VAF                                             XREF[2]:     RESET:01de(R), RESET:0201(R)  
       INTMEM:34                 undefined1 ??
                             UBATT                                           XREF[2]:     RESET:0cfd(W), RESET:0d30(R)  
       INTMEM:35                 undefined1 ??
                             ECT                                             XREF[16]:    RESET:0113(R), RESET:0259(R), 
                                                                                          RESET:02d5(R), RESET:0427(R), 
                                                                                          RESET:044e(R), 
                                                                                          FUN_CODE_06a6:06e1(R), 
                                                                                          LookupR1Mem:070a(R), 
                                                                                          FUN_CODE_0800:0812(R), 
                                                                                          FUN_CODE_0800:081c(R), 
                                                                                          idleValve:0983(R), 
                                                                                          idleValve:09f6(R), 
                                                                                          idleValve:0ae4(R), 
                                                                                          FUN_CODE_0b44:0b48(R), 
                                                                                          idleValve:0b9b(R), 
                                                                                          FUN_CODE_0d61:0d64(R), 
                                                                                          FUN_CODE_0d79:0d79(R)  
       INTMEM:36                 undefined1 ??
                             IAT                                             XREF[3]:     RESET:010f(W), 
                                                                                          FUN_CODE_0b44:0b46(R), 
                                                                                          idleValve:0b5f(R)  
       INTMEM:37                 undefined1 ??
                             DAT_INTMEM_38                                   XREF[1]:     RESET:01cd(R)  
       INTMEM:38                 undefined1 ??
                             DAT_INTMEM_39                                   XREF[1]:     RESET:021a(RW)  
       INTMEM:39                 undefined1 ??
                             DAT_INTMEM_3a                                   XREF[2]:     TIMIRQ:0021(R), TIMIRQ:009d(W)  
       INTMEM:3a                 undefined1 ??
                             DAT_INTMEM_3b                                   XREF[2]:     TIMIRQ:0045(RW), TIMIRQ:00a4(W)  
       INTMEM:3b                 undefined1 ??
                             DAT_INTMEM_3c                                   XREF[3]:     TIMIRQ:0017(R), TIMIRQ:001b(W), 
                                                                                          TIMIRQ:00ae(W)  
       INTMEM:3c                 undefined1 ??
                             DAT_INTMEM_3d                                   XREF[5]:     RESET:00fe(W), RESET:0498(W), 
                                                                                          RESET:051d(R), RESET:0521(W), 
                                                                                          FUN_CODE_0800:082d(R)  
       INTMEM:3d                 undefined1 ??
                             DAT_INTMEM_3e                                   XREF[3]:     FUN_CODE_0800:0836(R), 
                                                                                          FUN_CODE_0800:0843(R), 
                                                                                          FUN_CODE_0800:0886(W)  
       INTMEM:3e                 undefined1 ??
                             DAT_INTMEM_3f                                   XREF[4]:     RESET:00e6(W), 
                                                                                          FUN_CODE_0800:084e(R), 
                                                                                          FUN_CODE_0800:0850(W), 
                                                                                          FUN_CODE_0800:0862(W)  
       INTMEM:3f                 undefined1 ??
                             DAT_INTMEM_40                                   XREF[13]:    RESET:042e(W), RESET:0492(W), 
                                                                                          FUN_CODE_0570:0574(R), 
                                                                                          FUN_CODE_060a:060e(R), 
                                                                                          FUN_CODE_0800:0823(W), 
                                                                                          FUN_CODE_0800:0855(R), 
                                                                                          FUN_CODE_0800:0858(W), 
                                                                                          FUN_CODE_0800:0867(R), 
                                                                                          FUN_CODE_0800:086c(R), 
                                                                                          FUN_CODE_0800:0876(W), 
                                                                                          FUN_CODE_0800:0894(W), 
                                                                                          FUN_CODE_0800:08b2(W), 
                                                                                          FUN_CODE_0800:08c0(R)  
       INTMEM:40                 undefined1 ??
                             DAT_INTMEM_41                                   XREF[4]:     FUN_CODE_0800:080b(RW), 
                                                                                          FUN_CODE_0800:0871(W), 
                                                                                          FUN_CODE_0800:088b(R), 
                                                                                          FUN_CODE_0800:088f(W)  
       INTMEM:41                 undefined1 ??
                             DAT_INTMEM_42                                   XREF[1]:     FUN_CODE_0570:0577(W)  
       INTMEM:42                 undefined1 ??
                             DAT_INTMEM_43                                   XREF[11]:    RESET:00fa(W), RESET:0432(W), 
                                                                                          FUN_CODE_060a:063f(R), 
                                                                                          FUN_CODE_060a:0648(R), 
                                                                                          FUN_CODE_060a:064d(W), 
                                                                                          FUN_CODE_060a:066a(R), 
                                                                                          FUN_CODE_060a:0675(W), 
                                                                                          FUN_CODE_060a:06f8(R), 
                                                                                          FUN_CODE_0800:0827(W), 
                                                                                          FUN_CODE_0800:087a(R), 
                                                                                          FUN_CODE_0800:0882(W)  
       INTMEM:43                 undefined1 ??
                             DAT_INTMEM_44                                   XREF[5]:     FUN_CODE_060a:0611(R), 
                                                                                          FUN_CODE_060a:0612(W), 
                                                                                          FUN_CODE_060a:0619(R), 
                                                                                          FUN_CODE_060a:061a(W), 
                                                                                          FUN_CODE_060a:0651(W)  
       INTMEM:44                 undefined1 ??
                             DAT_INTMEM_45                                   XREF[6]:     FUN_CODE_060a:0616(RW), 
                                                                                          FUN_CODE_060a:061e(R), 
                                                                                          FUN_CODE_060a:0620(W), 
                                                                                          FUN_CODE_060a:0631(R), 
                                                                                          FUN_CODE_060a:0639(R), 
                                                                                          FUN_CODE_060a:064f(W)  
       INTMEM:45                 undefined1 ??
                             DAT_INTMEM_46                                   XREF[4]:     FUN_CODE_060a:0622(RW), 
                                                                                          FUN_CODE_060a:0623(R), 
                                                                                          FUN_CODE_060a:0629(W), 
                                                                                          FUN_CODE_0800:08a5(W)  
       INTMEM:46                 undefined1 ??
                             DAT_INTMEM_47                                   XREF[5]:     RESET:013d(W), RESET:0149(W), 
                                                                                          RESET:0451(R), 
                                                                                          FUN_CODE_0800:0813(R), 
                                                                                          idleValve:0980(R)  
       INTMEM:47                 undefined1 ??
                             DAT_INTMEM_48                                   XREF[4]:     RESET:0137(W), RESET:0409(R), 
                                                                                          RESET:041f(R), RESET:0421(W)  
       INTMEM:48                 undefined1 ??
                             DAT_INTMEM_49                                   XREF[3]:     RESET:0139(W), RESET:0416(R), 
                                                                                          RESET:0421(W)  
       INTMEM:49                 undefined1 ??
                             DAT_INTMEM_4a                                   XREF[2]:     RESET:02ea(W), 
                                                                                          FUN_CODE_06a6:06b1(R)  
       INTMEM:4a                 undefined1 ??
                             DAT_INTMEM_4b                                   XREF[2]:     RESET:02ed(W), 
                                                                                          FUN_CODE_06a6:06b5(R)  
       INTMEM:4b                 undefined1 ??
                             DAT_INTMEM_4c                                   XREF[2]:     RESET:02fb(W), 
                                                                                          FUN_CODE_06a6:06b1(R)  
       INTMEM:4c                 undefined1 ??
                             DAT_INTMEM_4d                                   XREF[2]:     RESET:0400(W), 
                                                                                          FUN_CODE_06a6:06b5(R)  
       INTMEM:4d                 undefined1 ??
                             DAT_INTMEM_4e                                   XREF[5]:     FUN_CODE_0800:0895(W), 
                                                                                          FUN_CODE_0800:089e(R), 
                                                                                          FUN_CODE_0800:08a9(R), 
                                                                                          FUN_CODE_0800:08ad(W), 
                                                                                          FUN_CODE_0800:08be(W)  
       INTMEM:4e                 undefined1 ??
                             DAT_INTMEM_4f                                   XREF[4]:     RESET:019f(W), RESET:01e8(W), 
                                                                                          FUN_CODE_060a:0626(R), 
                                                                                          FUN_CODE_060a:062a(R)  
       INTMEM:4f                 undefined1 ??
                             DAT_INTMEM_50                                   XREF[4]:     idleValve:08d7(W), 
                                                                                          idleValve:0951(R), 
                                                                                          idleValve:0a70(R), 
                                                                                          idleValve:0a77(R)  
       INTMEM:50                 undefined1 ??
                             DAT_INTMEM_51                                   XREF[10]:    RESET:02c2(R), idleValve:0946(R), 
                                                                                          idleValve:0960(R), 
                                                                                          idleValve:0a56(R), 
                                                                                          idleValve:0a6c(R), RESET:0c89(R), 
                                                                                          RESET:0c8a(W), RESET:0caa(W), 
                                                                                          RESET:0cae(W), RESET:0cb1(R)  
       INTMEM:51                 undefined1 ??
                             DAT_INTMEM_52                                   XREF[5]:     RESET:0456(R), idleValve:08f8(R), 
                                                                                          idleValve:09a0(R), 
                                                                                          idleValve:0a8f(R), RESET:0cbd(W)  
       INTMEM:52                 undefined1 ??
                             DAT_INTMEM_53                                   XREF[34]:    idleValve:0a39(R), 
                                                                                          idleValve:0a42(R), 
                                                                                          idleValve:0a45(W), 
                                                                                          idleValve:0a4b(R), 
                                                                                          idleValve:0a4f(W), 
                                                                                          idleValve:0aaa(R), 
                                                                                          idleValve:0aae(W), 
                                                                                          idleValve:0ac2(R), 
                                                                                          idleValve:0ad3(W), 
                                                                                          idleValve:0b10(R), 
                                                                                          idleValve:0b15(W), 
                                                                                          idleValve:0b94(R), 
                                                                                          idleValve:0b98(W), 
                                                                                          idleValve:0ba0(W), 
                                                                                          idleValve:0ba2(R), 
                                                                                          FUN_CODE_0d3b:0d4b(R), 
                                                                                          FUN_CODE_0d3b:0d4e(W), 
                                                                                          FUN_CODE_0d3b:0d51(W), 
                                                                                          FUN_CODE_0d3b:0d56(R), 
                                                                                          FUN_CODE_0d3b:0d59(W), [more]
       INTMEM:53                 undefined1 ??
                             DAT_INTMEM_54                                   XREF[11]:    RESET:00ea(W), idleValve:0ab8(W), 
                                                                                          idleValve:0aba(R), 
                                                                                          idleValve:0abc(W), 
                                                                                          idleValve:0ac5(W), 
                                                                                          idleValve:0acc(W), 
                                                                                          idleValve:0b1d(W), 
                                                                                          idleValve:0b1f(R), 
                                                                                          idleValve:0b21(W), 
                                                                                          idleValve:0b2c(W), 
                                                                                          idleValve:0b34(W)  
       INTMEM:54                 undefined1 ??
                             DAT_INTMEM_55                                   XREF[3]:     idleValve:0ab3(R), 
                                                                                          idleValve:0b1a(R), 
                                                                                          idleValve:0b3f(W)  
       INTMEM:55                 undefined1 ??
                             DAT_INTMEM_56                                   XREF[5]:     RESET:00e3(W), idleValve:093b(W), 
                                                                                          idleValve:0a34(R), 
                                                                                          idleValve:0a3c(R), 
                                                                                          FUN_CODE_0d3b:0d43(W)  
       INTMEM:56                 undefined1 ??
                             DAT_INTMEM_57                                   XREF[4]:     RESET:016f(W), RESET:0563(R), 
                                                                                          RESET:0566(RW), 
                                                                                          idleValve:08d4(R)  
       INTMEM:57                 undefined1 ??
                             DAT_INTMEM_58                                   XREF[5]:     RESET:0171(W), RESET:0534(W), 
                                                                                          RESET:0559(R), RESET:055d(W), 
                                                                                          RESET:0560(W)  
       INTMEM:58                 undefined1 ??
                             DAT_INTMEM_59                                   XREF[7]:     idleValve:0a67(R), 
                                                                                          idleValve:0a6b(W), 
                                                                                          idleValve:0a96(R), 
                                                                                          idleValve:0a9e(W), 
                                                                                          idleValve:0aed(R), 
                                                                                          idleValve:0b03(W), 
                                                                                          idleValve:0b0a(W)  
       INTMEM:59                 undefined1 ??
                             DAT_INTMEM_5a                                   XREF[3]:     idleValve:098e(W), 
                                                                                          idleValve:0991(R), 
                                                                                          idleValve:0997(W)  
       INTMEM:5a                 undefined1 ??
                             DAT_INTMEM_5b                                   XREF[5]:     idleValve:09ca(R), 
                                                                                          idleValve:09cf(W), 
                                                                                          idleValve:09da(W), 
                                                                                          idleValve:0a03(R), 
                                                                                          idleValve:0a27(W)  
       INTMEM:5b                 undefined1 ??
                             DAT_INTMEM_5c                                   XREF[7]:     idleValve:09d1(R), 
                                                                                          idleValve:09d6(W), 
                                                                                          idleValve:09e7(W), 
                                                                                          idleValve:09e9(R), 
                                                                                          idleValve:09ee(W), 
                                                                                          idleValve:0a08(R), 
                                                                                          idleValve:0a2a(W)  
       INTMEM:5c                 undefined1 ??
                             DAT_INTMEM_5d                                   XREF[3]:     idleValve:0963(W), 
                                                                                          idleValve:0967(R), 
                                                                                          idleValve:096a(RW)  
       INTMEM:5d                 undefined1 ??
                             DAT_INTMEM_5e                                   XREF[4]:     RESET:011b(W), RESET:047d(R), 
                                                                                          RESET:0481(W), idleValve:0b5a(R)  
       INTMEM:5e                 undefined1 ??
                             DAT_INTMEM_5f                                   XREF[5]:     RESET:011e(W), RESET:0484(W), 
                                                                                          idleValve:0b6e(R), 
                                                                                          idleValve:0b72(W), 
                                                                                          idleValve:0b78(W)  
       INTMEM:5f                 undefined1 ??
                             DAT_INTMEM_60                                   XREF[5]:     RESET:0487(W), idleValve:0b74(R), 
                                                                                          idleValve:0b7b(R), 
                                                                                          idleValve:0b7d(W), 
                                                                                          idleValve:0b82(RW)  
       INTMEM:60                 undefined1 ??
                             DAT_INTMEM_61                                   XREF[5]:     TIMIRQ:0089(R), RESET:02cd(W), 
                                                                                          RESET:04a8(W), RESET:0569(R), 
                                                                                          RESET:056d(W)  
       INTMEM:61                 undefined1 ??
                             DAT_INTMEM_62                                   XREF[3]:     FUN_CODE_060a:0661(W), 
                                                                                          FUN_CODE_060a:0665(R), 
                                                                                          FUN_CODE_060a:0668(W)  
       INTMEM:62                 undefined1 ??
       INTMEM:63                 ??         ??
       INTMEM:64                 ??         ??
       INTMEM:65                 ??         ??
       INTMEM:66                 ??         ??
       INTMEM:67                 ??         ??
       INTMEM:68                 ??         ??
       INTMEM:69                 ??         ??
       INTMEM:6a                 ??         ??
       INTMEM:6b                 ??         ??
       INTMEM:6c                 ??         ??
       INTMEM:6d                 ??         ??
       INTMEM:6e                 ??         ??
       INTMEM:6f                 ??         ??
       INTMEM:70                 ??         ??
       INTMEM:71                 ??         ??
       INTMEM:72                 ??         ??
       INTMEM:73                 ??         ??
       INTMEM:74                 ??         ??
       INTMEM:75                 ??         ??
       INTMEM:76                 ??         ??
       INTMEM:77                 ??         ??
       INTMEM:78                 ??         ??
       INTMEM:79                 ??         ??
       INTMEM:7a                 ??         ??
       INTMEM:7b                 ??         ??
       INTMEM:7c                 ??         ??
                             DAT_INTMEM_7d                                   XREF[1]:     RESET:00ce(W)  
       INTMEM:7d                 undefined1 ??
                             DAT_INTMEM_7e                                   XREF[1]:     RESET:00ce(W)  
       INTMEM:7e                 undefined1 ??
                             DAT_INTMEM_7f                                   XREF[2]:     RESET:00c0(R), RESET:00c5(W)  
       INTMEM:7f                 undefined1 ??
       INTMEM:80                 ??         ??
       INTMEM:81                 ??         ??
       INTMEM:82                 ??         ??
       INTMEM:83                 ??         ??
       INTMEM:84                 ??         ??
       INTMEM:85                 ??         ??
       INTMEM:86                 ??         ??
       INTMEM:87                 ??         ??
       INTMEM:88                 ??         ??
       INTMEM:89                 ??         ??
       INTMEM:8a                 ??         ??
       INTMEM:8b                 ??         ??
       INTMEM:8c                 ??         ??
       INTMEM:8d                 ??         ??
       INTMEM:8e                 ??         ??
       INTMEM:8f                 ??         ??
       INTMEM:90                 ??         ??
       INTMEM:91                 ??         ??
       INTMEM:92                 ??         ??
       INTMEM:93                 ??         ??
       INTMEM:94                 ??         ??
       INTMEM:95                 ??         ??
       INTMEM:96                 ??         ??
       INTMEM:97                 ??         ??
       INTMEM:98                 ??         ??
       INTMEM:99                 ??         ??
       INTMEM:9a                 ??         ??
       INTMEM:9b                 ??         ??
       INTMEM:9c                 ??         ??
       INTMEM:9d                 ??         ??
       INTMEM:9e                 ??         ??
       INTMEM:9f                 ??         ??
       INTMEM:a0                 ??         ??
       INTMEM:a1                 ??         ??
       INTMEM:a2                 ??         ??
       INTMEM:a3                 ??         ??
       INTMEM:a4                 ??         ??
       INTMEM:a5                 ??         ??
       INTMEM:a6                 ??         ??
       INTMEM:a7                 ??         ??
       INTMEM:a8                 ??         ??
       INTMEM:a9                 ??         ??
       INTMEM:aa                 ??         ??
       INTMEM:ab                 ??         ??
       INTMEM:ac                 ??         ??
       INTMEM:ad                 ??         ??
       INTMEM:ae                 ??         ??
       INTMEM:af                 ??         ??
       INTMEM:b0                 ??         ??
       INTMEM:b1                 ??         ??
       INTMEM:b2                 ??         ??
       INTMEM:b3                 ??         ??
       INTMEM:b4                 ??         ??
       INTMEM:b5                 ??         ??
       INTMEM:b6                 ??         ??
       INTMEM:b7                 ??         ??
       INTMEM:b8                 ??         ??
       INTMEM:b9                 ??         ??
       INTMEM:ba                 ??         ??
       INTMEM:bb                 ??         ??
       INTMEM:bc                 ??         ??
       INTMEM:bd                 ??         ??
       INTMEM:be                 ??         ??
       INTMEM:bf                 ??         ??
       INTMEM:c0                 ??         ??
       INTMEM:c1                 ??         ??
       INTMEM:c2                 ??         ??
       INTMEM:c3                 ??         ??
       INTMEM:c4                 ??         ??
       INTMEM:c5                 ??         ??
       INTMEM:c6                 ??         ??
       INTMEM:c7                 ??         ??
       INTMEM:c8                 ??         ??
       INTMEM:c9                 ??         ??
       INTMEM:ca                 ??         ??
       INTMEM:cb                 ??         ??
       INTMEM:cc                 ??         ??
       INTMEM:cd                 ??         ??
       INTMEM:ce                 ??         ??
       INTMEM:cf                 ??         ??
       INTMEM:d0                 ??         ??
       INTMEM:d1                 ??         ??
       INTMEM:d2                 ??         ??
       INTMEM:d3                 ??         ??
       INTMEM:d4                 ??         ??
       INTMEM:d5                 ??         ??
       INTMEM:d6                 ??         ??
       INTMEM:d7                 ??         ??
       INTMEM:d8                 ??         ??
       INTMEM:d9                 ??         ??
       INTMEM:da                 ??         ??
       INTMEM:db                 ??         ??
       INTMEM:dc                 ??         ??
       INTMEM:dd                 ??         ??
       INTMEM:de                 ??         ??
       INTMEM:df                 ??         ??
       INTMEM:e0                 ??         ??
       INTMEM:e1                 ??         ??
       INTMEM:e2                 ??         ??
       INTMEM:e3                 ??         ??
       INTMEM:e4                 ??         ??
       INTMEM:e5                 ??         ??
       INTMEM:e6                 ??         ??
       INTMEM:e7                 ??         ??
       INTMEM:e8                 ??         ??
       INTMEM:e9                 ??         ??
       INTMEM:ea                 ??         ??
       INTMEM:eb                 ??         ??
       INTMEM:ec                 ??         ??
       INTMEM:ed                 ??         ??
       INTMEM:ee                 ??         ??
       INTMEM:ef                 ??         ??
       INTMEM:f0                 ??         ??
       INTMEM:f1                 ??         ??
       INTMEM:f2                 ??         ??
       INTMEM:f3                 ??         ??
       INTMEM:f4                 ??         ??
       INTMEM:f5                 ??         ??
       INTMEM:f6                 ??         ??
       INTMEM:f7                 ??         ??
       INTMEM:f8                 ??         ??
       INTMEM:f9                 ??         ??
       INTMEM:fa                 ??         ??
       INTMEM:fb                 ??         ??
       INTMEM:fc                 ??         ??
       INTMEM:fd                 ??         ??
       INTMEM:fe                 ??         ??
       INTMEM:ff                 ??         ??
                             //
                             // ADC 
                             // CODE: EXTMEM:00-EXTMEM:fe
                             //
       EXTMEM:00                 ??         ??
       EXTMEM:01                 ??         ??
       EXTMEM:02                 ??         ??
       EXTMEM:03                 ??         ??
       EXTMEM:04                 ??         ??
       EXTMEM:05                 ??         ??
       EXTMEM:06                 ??         ??
       EXTMEM:07                 ??         ??
       EXTMEM:08                 ??         ??
       EXTMEM:09                 ??         ??
       EXTMEM:0a                 ??         ??
       EXTMEM:0b                 ??         ??
       EXTMEM:0c                 ??         ??
       EXTMEM:0d                 ??         ??
       EXTMEM:0e                 ??         ??
       EXTMEM:0f                 ??         ??
       EXTMEM:10                 ??         ??
       EXTMEM:11                 ??         ??
       EXTMEM:12                 ??         ??
       EXTMEM:13                 ??         ??
       EXTMEM:14                 ??         ??
       EXTMEM:15                 ??         ??
       EXTMEM:16                 ??         ??
       EXTMEM:17                 ??         ??
       EXTMEM:18                 ??         ??
       EXTMEM:19                 ??         ??
       EXTMEM:1a                 ??         ??
       EXTMEM:1b                 ??         ??
       EXTMEM:1c                 ??         ??
       EXTMEM:1d                 ??         ??
       EXTMEM:1e                 ??         ??
       EXTMEM:1f                 ??         ??
       EXTMEM:20                 ??         ??
       EXTMEM:21                 ??         ??
       EXTMEM:22                 ??         ??
       EXTMEM:23                 ??         ??
       EXTMEM:24                 ??         ??
       EXTMEM:25                 ??         ??
       EXTMEM:26                 ??         ??
       EXTMEM:27                 ??         ??
       EXTMEM:28                 ??         ??
       EXTMEM:29                 ??         ??
       EXTMEM:2a                 ??         ??
       EXTMEM:2b                 ??         ??
       EXTMEM:2c                 ??         ??
       EXTMEM:2d                 ??         ??
       EXTMEM:2e                 ??         ??
       EXTMEM:2f                 ??         ??
       EXTMEM:30                 ??         ??
       EXTMEM:31                 ??         ??
       EXTMEM:32                 ??         ??
       EXTMEM:33                 ??         ??
       EXTMEM:34                 ??         ??
       EXTMEM:35                 ??         ??
       EXTMEM:36                 ??         ??
                             DAT_EXTMEM_37                                   XREF[1]:     RESET:010e(R)  
       EXTMEM:37                 ??         ??
       EXTMEM:38                 ??         ??
       EXTMEM:39                 ??         ??
       EXTMEM:3a                 ??         ??
       EXTMEM:3b                 ??         ??
       EXTMEM:3c                 ??         ??
       EXTMEM:3d                 ??         ??
       EXTMEM:3e                 ??         ??
       EXTMEM:3f                 ??         ??
       EXTMEM:40                 ??         ??
       EXTMEM:41                 ??         ??
       EXTMEM:42                 ??         ??
       EXTMEM:43                 ??         ??
       EXTMEM:44                 ??         ??
       EXTMEM:45                 ??         ??
       EXTMEM:46                 ??         ??
       EXTMEM:47                 ??         ??
       EXTMEM:48                 ??         ??
       EXTMEM:49                 ??         ??
       EXTMEM:4a                 ??         ??
       EXTMEM:4b                 ??         ??
       EXTMEM:4c                 ??         ??
       EXTMEM:4d                 ??         ??
       EXTMEM:4e                 ??         ??
       EXTMEM:4f                 ??         ??
       EXTMEM:50                 ??         ??
       EXTMEM:51                 ??         ??
       EXTMEM:52                 ??         ??
       EXTMEM:53                 ??         ??
       EXTMEM:54                 ??         ??
       EXTMEM:55                 ??         ??
       EXTMEM:56                 ??         ??
       EXTMEM:57                 ??         ??
       EXTMEM:58                 ??         ??
       EXTMEM:59                 ??         ??
       EXTMEM:5a                 ??         ??
       EXTMEM:5b                 ??         ??
       EXTMEM:5c                 ??         ??
       EXTMEM:5d                 ??         ??
       EXTMEM:5e                 ??         ??
       EXTMEM:5f                 ??         ??
       EXTMEM:60                 ??         ??
       EXTMEM:61                 ??         ??
       EXTMEM:62                 ??         ??
       EXTMEM:63                 ??         ??
       EXTMEM:64                 ??         ??
       EXTMEM:65                 ??         ??
       EXTMEM:66                 ??         ??
       EXTMEM:67                 ??         ??
       EXTMEM:68                 ??         ??
       EXTMEM:69                 ??         ??
       EXTMEM:6a                 ??         ??
       EXTMEM:6b                 ??         ??
       EXTMEM:6c                 ??         ??
       EXTMEM:6d                 ??         ??
       EXTMEM:6e                 ??         ??
       EXTMEM:6f                 ??         ??
       EXTMEM:70                 ??         ??
       EXTMEM:71                 ??         ??
       EXTMEM:72                 ??         ??
       EXTMEM:73                 ??         ??
       EXTMEM:74                 ??         ??
       EXTMEM:75                 ??         ??
       EXTMEM:76                 ??         ??
       EXTMEM:77                 ??         ??
       EXTMEM:78                 ??         ??
       EXTMEM:79                 ??         ??
       EXTMEM:7a                 ??         ??
       EXTMEM:7b                 ??         ??
       EXTMEM:7c                 ??         ??
       EXTMEM:7d                 ??         ??
       EXTMEM:7e                 ??         ??
       EXTMEM:7f                 ??         ??
       EXTMEM:80                 ??         ??
       EXTMEM:81                 ??         ??
       EXTMEM:82                 ??         ??
       EXTMEM:83                 ??         ??
       EXTMEM:84                 ??         ??
       EXTMEM:85                 ??         ??
       EXTMEM:86                 ??         ??
       EXTMEM:87                 ??         ??
       EXTMEM:88                 ??         ??
       EXTMEM:89                 ??         ??
       EXTMEM:8a                 ??         ??
       EXTMEM:8b                 ??         ??
       EXTMEM:8c                 ??         ??
       EXTMEM:8d                 ??         ??
       EXTMEM:8e                 ??         ??
       EXTMEM:8f                 ??         ??
       EXTMEM:90                 ??         ??
       EXTMEM:91                 ??         ??
       EXTMEM:92                 ??         ??
       EXTMEM:93                 ??         ??
       EXTMEM:94                 ??         ??
       EXTMEM:95                 ??         ??
       EXTMEM:96                 ??         ??
       EXTMEM:97                 ??         ??
       EXTMEM:98                 ??         ??
       EXTMEM:99                 ??         ??
       EXTMEM:9a                 ??         ??
       EXTMEM:9b                 ??         ??
       EXTMEM:9c                 ??         ??
       EXTMEM:9d                 ??         ??
       EXTMEM:9e                 ??         ??
       EXTMEM:9f                 ??         ??
       EXTMEM:a0                 ??         ??
       EXTMEM:a1                 ??         ??
       EXTMEM:a2                 ??         ??
       EXTMEM:a3                 ??         ??
       EXTMEM:a4                 ??         ??
       EXTMEM:a5                 ??         ??
       EXTMEM:a6                 ??         ??
       EXTMEM:a7                 ??         ??
       EXTMEM:a8                 ??         ??
       EXTMEM:a9                 ??         ??
       EXTMEM:aa                 ??         ??
       EXTMEM:ab                 ??         ??
       EXTMEM:ac                 ??         ??
       EXTMEM:ad                 ??         ??
       EXTMEM:ae                 ??         ??
       EXTMEM:af                 ??         ??
       EXTMEM:b0                 ??         ??
       EXTMEM:b1                 ??         ??
       EXTMEM:b2                 ??         ??
       EXTMEM:b3                 ??         ??
       EXTMEM:b4                 ??         ??
       EXTMEM:b5                 ??         ??
       EXTMEM:b6                 ??         ??
       EXTMEM:b7                 ??         ??
       EXTMEM:b8                 ??         ??
       EXTMEM:b9                 ??         ??
       EXTMEM:ba                 ??         ??
       EXTMEM:bb                 ??         ??
       EXTMEM:bc                 ??         ??
       EXTMEM:bd                 ??         ??
       EXTMEM:be                 ??         ??
       EXTMEM:bf                 ??         ??
       EXTMEM:c0                 ??         ??
       EXTMEM:c1                 ??         ??
       EXTMEM:c2                 ??         ??
       EXTMEM:c3                 ??         ??
       EXTMEM:c4                 ??         ??
       EXTMEM:c5                 ??         ??
       EXTMEM:c6                 ??         ??
       EXTMEM:c7                 ??         ??
       EXTMEM:c8                 ??         ??
       EXTMEM:c9                 ??         ??
       EXTMEM:ca                 ??         ??
       EXTMEM:cb                 ??         ??
       EXTMEM:cc                 ??         ??
       EXTMEM:cd                 ??         ??
       EXTMEM:ce                 ??         ??
       EXTMEM:cf                 ??         ??
       EXTMEM:d0                 ??         ??
       EXTMEM:d1                 ??         ??
       EXTMEM:d2                 ??         ??
       EXTMEM:d3                 ??         ??
       EXTMEM:d4                 ??         ??
       EXTMEM:d5                 ??         ??
       EXTMEM:d6                 ??         ??
       EXTMEM:d7                 ??         ??
       EXTMEM:d8                 ??         ??
       EXTMEM:d9                 ??         ??
       EXTMEM:da                 ??         ??
       EXTMEM:db                 ??         ??
       EXTMEM:dc                 ??         ??
       EXTMEM:dd                 ??         ??
       EXTMEM:de                 ??         ??
       EXTMEM:df                 ??         ??
       EXTMEM:e0                 ??         ??
       EXTMEM:e1                 ??         ??
       EXTMEM:e2                 ??         ??
       EXTMEM:e3                 ??         ??
       EXTMEM:e4                 ??         ??
       EXTMEM:e5                 ??         ??
       EXTMEM:e6                 ??         ??
       EXTMEM:e7                 ??         ??
       EXTMEM:e8                 ??         ??
       EXTMEM:e9                 ??         ??
       EXTMEM:ea                 ??         ??
       EXTMEM:eb                 ??         ??
       EXTMEM:ec                 ??         ??
       EXTMEM:ed                 ??         ??
       EXTMEM:ee                 ??         ??
       EXTMEM:ef                 ??         ??
       EXTMEM:f0                 ??         ??
       EXTMEM:f1                 ??         ??
       EXTMEM:f2                 ??         ??
       EXTMEM:f3                 ??         ??
       EXTMEM:f4                 ??         ??
       EXTMEM:f5                 ??         ??
       EXTMEM:f6                 ??         ??
       EXTMEM:f7                 ??         ??
       EXTMEM:f8                 ??         ??
       EXTMEM:f9                 ??         ??
       EXTMEM:fa                 ??         ??
       EXTMEM:fb                 ??         ??
       EXTMEM:fc                 ??         ??
       EXTMEM:fd                 ??         ??
       EXTMEM:fe                 ??         ??
                             //
                             // PORT 
                             // CODE: PORT:00-PORT:07
                             //
                             BUS
         PORT:00                 ??         ??
                             P1                                              XREF[1]:     FUN_CODE_0b44:0c05(R)  
         PORT:01                 undefined1 ??
                             P2                                              XREF[9]:     RESET:00f3(R), RESET:029d(R), 
                                                                                          RESET:0422(R), 
                                                                                          FUN_CODE_05a7:05ad(R), 
                                                                                          300FuelLookup:0687(R), 
                                                                                          FUN_CODE_0800:0802(R), 
                                                                                          FUN_CODE_0800:085b(R), 
                                                                                          FUN_CODE_0800:08b0(R), 
                                                                                          FUN_CODE_0b44:0c18(R)  
         PORT:02                 undefined1 ??
         PORT:03                 ??         ??
                             P4                                              XREF[1]:     FUN_CODE_0570:0580(W)  
         PORT:04                 undefined1 ??
                             P5                                              XREF[1]:     FUN_CODE_0570:0582(W)  
         PORT:05                 undefined1 ??
                             P6                                              XREF[1]:     FUN_CODE_0570:057b(R)  
         PORT:06                 undefined1 ??
                             P7                                              XREF[1]:     FUN_CODE_0570:0578(R)  
         PORT:07                 undefined1 ??
                             //
                             // PAGE3 (Overlay)
                             // CODE: PAGE3::0300-PAGE3::03ff
                             //
     PAGE3::0300 d0              ??         D0h
     PAGE3::0301 da              ??         DAh
     PAGE3::0302 d4              ??         D4h
     PAGE3::0303 cc              ??         CCh
     PAGE3::0304 be              ??         BEh
     PAGE3::0305 a7              ??         A7h
     PAGE3::0306 9d              ??         9Dh
     PAGE3::0307 94              ??         94h
     PAGE3::0308 8a              ??         8Ah
     PAGE3::0309 77              ??         77h    w
     PAGE3::030a 70              ??         70h    p
     PAGE3::030b 7b              ??         7Bh    {
     PAGE3::030c 63              ??         63h    c
     PAGE3::030d 82              ??         82h
     PAGE3::030e b0              ??         B0h
     PAGE3::030f b4              ??         B4h
     PAGE3::0310 a3              ??         A3h
     PAGE3::0311 83              ??         83h
     PAGE3::0312 01              ??         01h
     PAGE3::0313 02              ??         02h
     PAGE3::0314 04              ??         04h
     PAGE3::0315 06              ??         06h
     PAGE3::0316 07              ??         07h
     PAGE3::0317 08              ??         08h
     PAGE3::0318 0a              ??         0Ah
     PAGE3::0319 10              ??         10h
     PAGE3::031a 21              ??         21h    !
     PAGE3::031b 28              ??         28h    (
     PAGE3::031c 48              ??         48h    H
     PAGE3::031d 4c              ??         4Ch    L
     PAGE3::031e b0              ??         B0h
     PAGE3::031f b4              ??         B4h
     PAGE3::0320 52              ??         52h    R
     PAGE3::0321 52              ??         52h    R
     PAGE3::0322 00              ??         00h
     PAGE3::0323 02              ??         02h
     PAGE3::0324 04              ??         04h
     PAGE3::0325 05              ??         05h
     PAGE3::0326 05              ??         05h
     PAGE3::0327 06              ??         06h
     PAGE3::0328 08              ??         08h
     PAGE3::0329 20              ??         20h     
     PAGE3::032a 24              ??         24h    $
     PAGE3::032b 2a              ??         2Ah    *
     PAGE3::032c 4b              ??         4Bh    K
     PAGE3::032d 6e              ??         6Eh    n
     PAGE3::032e ad              ??         ADh
     PAGE3::032f b1              ??         B1h
     PAGE3::0330 52              ??         52h    R
     PAGE3::0331 52              ??         52h    R
     PAGE3::0332 08              ??         08h
     PAGE3::0333 0a              ??         0Ah
     PAGE3::0334 0e              ??         0Eh
     PAGE3::0335 12              ??         12h
     PAGE3::0336 14              ??         14h
     PAGE3::0337 18              ??         18h
     PAGE3::0338 29              ??         29h    )
     PAGE3::0339 2e              ??         2Eh    .
     PAGE3::033a 38              ??         38h    8
     PAGE3::033b 47              ??         47h    G
     PAGE3::033c 64              ??         64h    d
     PAGE3::033d 8f              ??         8Fh
     PAGE3::033e d2              ??         D2h
     PAGE3::033f db              ??         DBh
     PAGE3::0340 07              ??         07h
     PAGE3::0341 0b              ??         0Bh
     PAGE3::0342 10              ??         10h
     PAGE3::0343 12              ??         12h
     PAGE3::0344 17              ??         17h
     PAGE3::0345 26              ??         26h    &
     PAGE3::0346 2a              ??         2Ah    *
     PAGE3::0347 2e              ??         2Eh    .
     PAGE3::0348 34              ??         34h    4
     PAGE3::0349 41              ??         41h    A
     PAGE3::034a 4f              ??         4Fh    O
     PAGE3::034b 63              ??         63h    c
     PAGE3::034c 80              ??         80h
     PAGE3::034d 8a              ??         8Ah
     PAGE3::034e c9              ??         C9h
     PAGE3::034f ce              ??         CEh
     PAGE3::0350 12              ??         12h
     PAGE3::0351 15              ??         15h
     PAGE3::0352 1a              ??         1Ah
     PAGE3::0353 29              ??         29h    )
     PAGE3::0354 2c              ??         2Ch    ,
     PAGE3::0355 2f              ??         2Fh    /
     PAGE3::0356 36              ??         36h    6
     PAGE3::0357 3c              ??         3Ch    <
     PAGE3::0358 49              ??         49h    I
     PAGE3::0359 54              ??         54h    T
     PAGE3::035a 69              ??         69h    i
     PAGE3::035b 7b              ??         7Bh    {
     PAGE3::035c 96              ??         96h
     PAGE3::035d bc              ??         BCh
     PAGE3::035e cb              ??         CBh
     PAGE3::035f d0              ??         D0h
     PAGE3::0360 27              ??         27h    '
     PAGE3::0361 30              ??         30h    0
     PAGE3::0362 32              ??         32h    2
     PAGE3::0363 35              ??         35h    5
     PAGE3::0364 39              ??         39h    9
     PAGE3::0365 42              ??         42h    B
     PAGE3::0366 49              ??         49h    I
     PAGE3::0367 50              ??         50h    P
     PAGE3::0368 5f              ??         5Fh    _
     PAGE3::0369 6c              ??         6Ch    l
     PAGE3::036a 81              ??         81h
     PAGE3::036b 93              ??         93h
     PAGE3::036c b0              ??         B0h
     PAGE3::036d da              ??         DAh
     PAGE3::036e d5              ??         D5h
     PAGE3::036f d9              ??         D9h
     PAGE3::0370 36              ??         36h    6
     PAGE3::0371 3e              ??         3Eh    >
     PAGE3::0372 42              ??         42h    B
     PAGE3::0373 47              ??         47h    G
     PAGE3::0374 4d              ??         4Dh    M
     PAGE3::0375 55              ??         55h    U
     PAGE3::0376 60              ??         60h    `
     PAGE3::0377 68              ??         68h    h
     PAGE3::0378 76              ??         76h    v
     PAGE3::0379 84              ??         84h
     PAGE3::037a 9c              ??         9Ch
     PAGE3::037b ae              ??         AEh
     PAGE3::037c c3              ??         C3h
     PAGE3::037d c1              ??         C1h
     PAGE3::037e d8              ??         D8h
     PAGE3::037f dc              ??         DCh
     PAGE3::0380 42              ??         42h    B
     PAGE3::0381 4f              ??         4Fh    O
     PAGE3::0382 57              ??         57h    W
     PAGE3::0383 59              ??         59h    Y
     PAGE3::0384 61              ??         61h    a
     PAGE3::0385 6c              ??         6Ch    l
     PAGE3::0386 76              ??         76h    v
     PAGE3::0387 80              ??         80h
     PAGE3::0388 90              ??         90h
     PAGE3::0389 a0              ??         A0h
     PAGE3::038a b7              ??         B7h
     PAGE3::038b c6              ??         C6h
     PAGE3::038c c3              ??         C3h
     PAGE3::038d c5              ??         C5h
     PAGE3::038e dc              ??         DCh
     PAGE3::038f e0              ??         E0h
     PAGE3::0390 50              ??         50h    P
     PAGE3::0391 63              ??         63h    c
     PAGE3::0392 6a              ??         6Ah    j
     PAGE3::0393 71              ??         71h    q
     PAGE3::0394 77              ??         77h    w
     PAGE3::0395 84              ??         84h
     PAGE3::0396 8f              ??         8Fh
     PAGE3::0397 9a              ??         9Ah
     PAGE3::0398 ab              ??         ABh
     PAGE3::0399 bb              ??         BBh
     PAGE3::039a cc              ??         CCh
     PAGE3::039b c6              ??         C6h
     PAGE3::039c c3              ??         C3h
     PAGE3::039d c1              ??         C1h
     PAGE3::039e e0              ??         E0h
     PAGE3::039f e3              ??         E3h
     PAGE3::03a0 6b              ??         6Bh    k
     PAGE3::03a1 7d              ??         7Dh    }
     PAGE3::03a2 83              ??         83h
     PAGE3::03a3 8a              ??         8Ah
     PAGE3::03a4 92              ??         92h
     PAGE3::03a5 9f              ??         9Fh
     PAGE3::03a6 ab              ??         ABh
     PAGE3::03a7 b7              ??         B7h
     PAGE3::03a8 c8              ??         C8h
     PAGE3::03a9 d1              ??         D1h
     PAGE3::03aa d2              ??         D2h
     PAGE3::03ab c6              ??         C6h
     PAGE3::03ac c3              ??         C3h
     PAGE3::03ad c1              ??         C1h
     PAGE3::03ae e4              ??         E4h
     PAGE3::03af e7              ??         E7h
     PAGE3::03b0 88              ??         88h
     PAGE3::03b1 9a              ??         9Ah
     PAGE3::03b2 9f              ??         9Fh
     PAGE3::03b3 a9              ??         A9h
     PAGE3::03b4 b0              ??         B0h
     PAGE3::03b5 bd              ??         BDh
     PAGE3::03b6 c8              ??         C8h
     PAGE3::03b7 cf              ??         CFh
     PAGE3::03b8 d2              ??         D2h
     PAGE3::03b9 d8              ??         D8h
     PAGE3::03ba c9              ??         C9h
     PAGE3::03bb c6              ??         C6h
     PAGE3::03bc c3              ??         C3h
     PAGE3::03bd c1              ??         C1h
     PAGE3::03be e8              ??         E8h
     PAGE3::03bf e9              ??         E9h
     PAGE3::03c0 a3              ??         A3h
     PAGE3::03c1 b4              ??         B4h
     PAGE3::03c2 bb              ??         BBh
     PAGE3::03c3 c6              ??         C6h
     PAGE3::03c4 cb              ??         CBh
     PAGE3::03c5 d8              ??         D8h
     PAGE3::03c6 d6              ??         D6h
     PAGE3::03c7 d5              ??         D5h
     PAGE3::03c8 d8              ??         D8h
     PAGE3::03c9 cf              ??         CFh
     PAGE3::03ca c9              ??         C9h
     PAGE3::03cb c6              ??         C6h
     PAGE3::03cc c3              ??         C3h
     PAGE3::03cd c1              ??         C1h
     PAGE3::03ce eb              ??         EBh
     PAGE3::03cf ec              ??         ECh
     PAGE3::03d0 c2              ??         C2h
     PAGE3::03d1 ca              ??         CAh
     PAGE3::03d2 d4              ??         D4h
     PAGE3::03d3 db              ??         DBh
     PAGE3::03d4 e0              ??         E0h
     PAGE3::03d5 e5              ??         E5h
     PAGE3::03d6 d0              ??         D0h
     PAGE3::03d7 d2              ??         D2h
     PAGE3::03d8 d1              ??         D1h
     PAGE3::03d9 cf              ??         CFh
     PAGE3::03da c9              ??         C9h
     PAGE3::03db c6              ??         C6h
     PAGE3::03dc c3              ??         C3h
     PAGE3::03dd c1              ??         C1h
     PAGE3::03de f3              ??         F3h
     PAGE3::03df f4              ??         F4h
     PAGE3::03e0 c4              ??         C4h
     PAGE3::03e1 d2              ??         D2h
     PAGE3::03e2 e0              ??         E0h
     PAGE3::03e3 f0              ??         F0h
     PAGE3::03e4 da              ??         DAh
     PAGE3::03e5 d8              ??         D8h
     PAGE3::03e6 d5              ??         D5h
     PAGE3::03e7 d2              ??         D2h
     PAGE3::03e8 d1              ??         D1h
     PAGE3::03e9 cf              ??         CFh
     PAGE3::03ea c9              ??         C9h
     PAGE3::03eb c6              ??         C6h
     PAGE3::03ec c3              ??         C3h
     PAGE3::03ed c1              ??         C1h
     PAGE3::03ee f4              ??         F4h
     PAGE3::03ef f5              ??         F5h
     PAGE3::03f0 cc              ??         CCh
     PAGE3::03f1 d1              ??         D1h
     PAGE3::03f2 d9              ??         D9h
     PAGE3::03f3 da              ??         DAh
     PAGE3::03f4 da              ??         DAh
     PAGE3::03f5 d8              ??         D8h
     PAGE3::03f6 d5              ??         D5h
     PAGE3::03f7 d2              ??         D2h
     PAGE3::03f8 d1              ??         D1h
     PAGE3::03f9 cf              ??         CFh
     PAGE3::03fa c9              ??         C9h
     PAGE3::03fb c6              ??         C6h
     PAGE3::03fc c3              ??         C3h
     PAGE3::03fd c1              ??         C1h
     PAGE3::03fe f5              ??         F5h
     PAGE3::03ff f6              ??         F6h
                             //
                             // PAGE14 (Overlay)
                             // CODE: PAGE14::0e00-PAGE14::0eff
                             //
    PAGE14::0e00 d0              ??         D0h
    PAGE14::0e01 da              ??         DAh
    PAGE14::0e02 d4              ??         D4h
    PAGE14::0e03 cc              ??         CCh
    PAGE14::0e04 be              ??         BEh
    PAGE14::0e05 a7              ??         A7h
    PAGE14::0e06 9d              ??         9Dh
    PAGE14::0e07 94              ??         94h
    PAGE14::0e08 8a              ??         8Ah
    PAGE14::0e09 77              ??         77h    w
    PAGE14::0e0a 70              ??         70h    p
    PAGE14::0e0b 7b              ??         7Bh    {
    PAGE14::0e0c 63              ??         63h    c
    PAGE14::0e0d 82              ??         82h
    PAGE14::0e0e b0              ??         B0h
    PAGE14::0e0f b4              ??         B4h
    PAGE14::0e10 a3              ??         A3h
    PAGE14::0e11 83              ??         83h
    PAGE14::0e12 13              ??         13h
    PAGE14::0e13 06              ??         06h
    PAGE14::0e14 86              ??         86h
    PAGE14::0e15 10              ??         10h
    PAGE14::0e16 12              ??         12h
    PAGE14::0e17 12              ??         12h
    PAGE14::0e18 16              ??         16h
    PAGE14::0e19 19              ??         19h
    PAGE14::0e1a 1b              ??         1Bh
    PAGE14::0e1b 31              ??         31h    1
    PAGE14::0e1c 38              ??         38h    8
    PAGE14::0e1d 51              ??         51h    Q
    PAGE14::0e1e b0              ??         B0h
    PAGE14::0e1f b4              ??         B4h
    PAGE14::0e20 a1              ??         A1h
    PAGE14::0e21 a1              ??         A1h
    PAGE14::0e22 0f              ??         0Fh
    PAGE14::0e23 11              ??         11h
    PAGE14::0e24 12              ??         12h
    PAGE14::0e25 16              ??         16h
    PAGE14::0e26 18              ??         18h
    PAGE14::0e27 1a              ??         1Ah
    PAGE14::0e28 1e              ??         1Eh
    PAGE14::0e29 22              ??         22h    "
    PAGE14::0e2a 35              ??         35h    5
    PAGE14::0e2b 3d              ??         3Dh    =
    PAGE14::0e2c 51              ??         51h    Q
    PAGE14::0e2d 72              ??         72h    r
    PAGE14::0e2e ad              ??         ADh
    PAGE14::0e2f b1              ??         B1h
    PAGE14::0e30 a1              ??         A1h
    PAGE14::0e31 a1              ??         A1h
    PAGE14::0e32 15              ??         15h
    PAGE14::0e33 16              ??         16h
    PAGE14::0e34 18              ??         18h
    PAGE14::0e35 1a              ??         1Ah
    PAGE14::0e36 1c              ??         1Ch
    PAGE14::0e37 1d              ??         1Dh
    PAGE14::0e38 2f              ??         2Fh    /
    PAGE14::0e39 36              ??         36h    6
    PAGE14::0e3a 3f              ??         3Fh    ?
    PAGE14::0e3b 51              ??         51h    Q
    PAGE14::0e3c 68              ??         68h    h
    PAGE14::0e3d 87              ??         87h
    PAGE14::0e3e c5              ??         C5h
    PAGE14::0e3f cb              ??         CBh
    PAGE14::0e40 12              ??         12h
    PAGE14::0e41 16              ??         16h
    PAGE14::0e42 18              ??         18h
    PAGE14::0e43 1a              ??         1Ah
    PAGE14::0e44 1b              ??         1Bh
    PAGE14::0e45 1f              ??         1Fh
    PAGE14::0e46 2e              ??         2Eh    .
    PAGE14::0e47 31              ??         31h    1
    PAGE14::0e48 38              ??         38h    8
    PAGE14::0e49 42              ??         42h    B
    PAGE14::0e4a 54              ??         54h    T
    PAGE14::0e4b 67              ??         67h    g
    PAGE14::0e4c 80              ??         80h
    PAGE14::0e4d a3              ??         A3h
    PAGE14::0e4e c9              ??         C9h
    PAGE14::0e4f ce              ??         CEh
    PAGE14::0e50 1a              ??         1Ah
    PAGE14::0e51 1d              ??         1Dh
    PAGE14::0e52 20              ??         20h     
    PAGE14::0e53 22              ??         22h    "
    PAGE14::0e54 30              ??         30h    0
    PAGE14::0e55 32              ??         32h    2
    PAGE14::0e56 38              ??         38h    8
    PAGE14::0e57 3e              ??         3Eh    >
    PAGE14::0e58 46              ??         46h    F
    PAGE14::0e59 56              ??         56h    V
    PAGE14::0e5a 6c              ??         6Ch    l
    PAGE14::0e5b 80              ??         80h
    PAGE14::0e5c 99              ??         99h
    PAGE14::0e5d c1              ??         C1h
    PAGE14::0e5e cb              ??         CBh
    PAGE14::0e5f d0              ??         D0h
    PAGE14::0e60 2d              ??         2Dh    -
    PAGE14::0e61 31              ??         31h    1
    PAGE14::0e62 33              ??         33h    3
    PAGE14::0e63 36              ??         36h    6
    PAGE14::0e64 39              ??         39h    9
    PAGE14::0e65 41              ??         41h    A
    PAGE14::0e66 44              ??         44h    D
    PAGE14::0e67 4c              ??         4Ch    L
    PAGE14::0e68 5b              ??         5Bh    [
    PAGE14::0e69 6c              ??         6Ch    l
    PAGE14::0e6a 84              ??         84h
    PAGE14::0e6b 98              ??         98h
    PAGE14::0e6c b1              ??         B1h
    PAGE14::0e6d d7              ??         D7h
    PAGE14::0e6e d5              ??         D5h
    PAGE14::0e6f d9              ??         D9h
    PAGE14::0e70 36              ??         36h    6
    PAGE14::0e71 3d              ??         3Dh    =
    PAGE14::0e72 44              ??         44h    D
    PAGE14::0e73 45              ??         45h    E
    PAGE14::0e74 45              ??         45h    E
    PAGE14::0e75 50              ??         50h    P
    PAGE14::0e76 58              ??         58h    X
    PAGE14::0e77 62              ??         62h    b
    PAGE14::0e78 6d              ??         6Dh    m
    PAGE14::0e79 85              ??         85h
    PAGE14::0e7a 9f              ??         9Fh
    PAGE14::0e7b b2              ??         B2h
    PAGE14::0e7c c7              ??         C7h
    PAGE14::0e7d cb              ??         CBh
    PAGE14::0e7e d8              ??         D8h
    PAGE14::0e7f dc              ??         DCh
    PAGE14::0e80 48              ??         48h    H
    PAGE14::0e81 50              ??         50h    P
    PAGE14::0e82 52              ??         52h    R
    PAGE14::0e83 55              ??         55h    U
    PAGE14::0e84 59              ??         59h    Y
    PAGE14::0e85 65              ??         65h    e
    PAGE14::0e86 6f              ??         6Fh    o
    PAGE14::0e87 73              ??         73h    s
    PAGE14::0e88 85              ??         85h
    PAGE14::0e89 9e              ??         9Eh
    PAGE14::0e8a b7              ??         B7h
    PAGE14::0e8b c9              ??         C9h
    PAGE14::0e8c c7              ??         C7h
    PAGE14::0e8d c5              ??         C5h
    PAGE14::0e8e dc              ??         DCh
    PAGE14::0e8f e0              ??         E0h
    PAGE14::0e90 58              ??         58h    X
    PAGE14::0e91 5b              ??         5Bh    [
    PAGE14::0e92 67              ??         67h    g
    PAGE14::0e93 6a              ??         6Ah    j
    PAGE14::0e94 71              ??         71h    q
    PAGE14::0e95 7d              ??         7Dh    }
    PAGE14::0e96 82              ??         82h
    PAGE14::0e97 8c              ??         8Ch
    PAGE14::0e98 a4              ??         A4h
    PAGE14::0e99 bd              ??         BDh
    PAGE14::0e9a cb              ??         CBh
    PAGE14::0e9b cd              ??         CDh
    PAGE14::0e9c c6              ??         C6h
    PAGE14::0e9d c1              ??         C1h
    PAGE14::0e9e e0              ??         E0h
    PAGE14::0e9f e3              ??         E3h
    PAGE14::0ea0 6a              ??         6Ah    j
    PAGE14::0ea1 73              ??         73h    s
    PAGE14::0ea2 7e              ??         7Eh    ~
    PAGE14::0ea3 83              ??         83h
    PAGE14::0ea4 83              ??         83h
    PAGE14::0ea5 90              ??         90h
    PAGE14::0ea6 9b              ??         9Bh
    PAGE14::0ea7 ab              ??         ABh
    PAGE14::0ea8 c0              ??         C0h
    PAGE14::0ea9 d5              ??         D5h
    PAGE14::0eaa d9              ??         D9h
    PAGE14::0eab c6              ??         C6h
    PAGE14::0eac c3              ??         C3h
    PAGE14::0ead c1              ??         C1h
    PAGE14::0eae e4              ??         E4h
    PAGE14::0eaf e7              ??         E7h
    PAGE14::0eb0 84              ??         84h
    PAGE14::0eb1 90              ??         90h
    PAGE14::0eb2 98              ??         98h
    PAGE14::0eb3 a0              ??         A0h
    PAGE14::0eb4 a0              ??         A0h
    PAGE14::0eb5 ad              ??         ADh
    PAGE14::0eb6 bd              ??         BDh
    PAGE14::0eb7 c7              ??         C7h
    PAGE14::0eb8 d6              ??         D6h
    PAGE14::0eb9 ed              ??         EDh
    PAGE14::0eba c9              ??         C9h
    PAGE14::0ebb c6              ??         C6h
    PAGE14::0ebc c3              ??         C3h
    PAGE14::0ebd c1              ??         C1h
    PAGE14::0ebe e8              ??         E8h
    PAGE14::0ebf e9              ??         E9h
    PAGE14::0ec0 a0              ??         A0h
    PAGE14::0ec1 a9              ??         A9h
    PAGE14::0ec2 b2              ??         B2h
    PAGE14::0ec3 ba              ??         BAh
    PAGE14::0ec4 c3              ??         C3h
    PAGE14::0ec5 d5              ??         D5h
    PAGE14::0ec6 d7              ??         D7h
    PAGE14::0ec7 de              ??         DEh
    PAGE14::0ec8 e5              ??         E5h
    PAGE14::0ec9 cf              ??         CFh
    PAGE14::0eca c9              ??         C9h
    PAGE14::0ecb c6              ??         C6h
    PAGE14::0ecc c3              ??         C3h
    PAGE14::0ecd c1              ??         C1h
    PAGE14::0ece eb              ??         EBh
    PAGE14::0ecf ec              ??         ECh
    PAGE14::0ed0 b8              ??         B8h
    PAGE14::0ed1 c4              ??         C4h
    PAGE14::0ed2 cd              ??         CDh
    PAGE14::0ed3 de              ??         DEh
    PAGE14::0ed4 e4              ??         E4h
    PAGE14::0ed5 f3              ??         F3h
    PAGE14::0ed6 d0              ??         D0h
    PAGE14::0ed7 d2              ??         D2h
    PAGE14::0ed8 d1              ??         D1h
    PAGE14::0ed9 cf              ??         CFh
    PAGE14::0eda c9              ??         C9h
    PAGE14::0edb c6              ??         C6h
    PAGE14::0edc c3              ??         C3h
    PAGE14::0edd c1              ??         C1h
    PAGE14::0ede f3              ??         F3h
    PAGE14::0edf f4              ??         F4h
    PAGE14::0ee0 c8              ??         C8h
    PAGE14::0ee1 da              ??         DAh
    PAGE14::0ee2 f2              ??         F2h
    PAGE14::0ee3 ff              ??         FFh
    PAGE14::0ee4 da              ??         DAh
    PAGE14::0ee5 d8              ??         D8h
    PAGE14::0ee6 d5              ??         D5h
    PAGE14::0ee7 d2              ??         D2h
    PAGE14::0ee8 d1              ??         D1h
    PAGE14::0ee9 cf              ??         CFh
    PAGE14::0eea c9              ??         C9h
    PAGE14::0eeb c6              ??         C6h
    PAGE14::0eec c3              ??         C3h
    PAGE14::0eed c1              ??         C1h
    PAGE14::0eee f4              ??         F4h
    PAGE14::0eef f5              ??         F5h
    PAGE14::0ef0 cc              ??         CCh
    PAGE14::0ef1 d1              ??         D1h
    PAGE14::0ef2 d9              ??         D9h
    PAGE14::0ef3 da              ??         DAh
    PAGE14::0ef4 da              ??         DAh
    PAGE14::0ef5 d8              ??         D8h
    PAGE14::0ef6 d5              ??         D5h
    PAGE14::0ef7 d2              ??         D2h
    PAGE14::0ef8 d1              ??         D1h
    PAGE14::0ef9 cf              ??         CFh
    PAGE14::0efa c9              ??         C9h
    PAGE14::0efb c6              ??         C6h
    PAGE14::0efc c3              ??         C3h
    PAGE14::0efd c1              ??         C1h
    PAGE14::0efe f5              ??         F5h
    PAGE14::0eff f6              ??         F6h
                             //
                             // PAGE15 (Overlay)
                             // CODE: PAGE15::0f00-PAGE15::0fff
                             //
    PAGE15::0f00 d0              ??         D0h
    PAGE15::0f01 da              ??         DAh
    PAGE15::0f02 d4              ??         D4h
    PAGE15::0f03 cc              ??         CCh
    PAGE15::0f04 be              ??         BEh
    PAGE15::0f05 a7              ??         A7h
    PAGE15::0f06 9d              ??         9Dh
    PAGE15::0f07 94              ??         94h
    PAGE15::0f08 8a              ??         8Ah
    PAGE15::0f09 77              ??         77h    w
    PAGE15::0f0a 70              ??         70h    p
    PAGE15::0f0b 7b              ??         7Bh    {
    PAGE15::0f0c 63              ??         63h    c
    PAGE15::0f0d 82              ??         82h
    PAGE15::0f0e b0              ??         B0h
    PAGE15::0f0f b4              ??         B4h
    PAGE15::0f10 a3              ??         A3h
    PAGE15::0f11 83              ??         83h
    PAGE15::0f12 01              ??         01h
    PAGE15::0f13 02              ??         02h
    PAGE15::0f14 04              ??         04h
    PAGE15::0f15 06              ??         06h
    PAGE15::0f16 07              ??         07h
    PAGE15::0f17 08              ??         08h
    PAGE15::0f18 0a              ??         0Ah
    PAGE15::0f19 10              ??         10h
    PAGE15::0f1a 21              ??         21h    !
    PAGE15::0f1b 28              ??         28h    (
    PAGE15::0f1c 48              ??         48h    H
    PAGE15::0f1d 4c              ??         4Ch    L
    PAGE15::0f1e b0              ??         B0h
    PAGE15::0f1f b4              ??         B4h
    PAGE15::0f20 cb              ??         CBh
    PAGE15::0f21 cb              ??         CBh
    PAGE15::0f22 00              ??         00h
    PAGE15::0f23 02              ??         02h
    PAGE15::0f24 04              ??         04h
    PAGE15::0f25 05              ??         05h
    PAGE15::0f26 05              ??         05h
    PAGE15::0f27 06              ??         06h
    PAGE15::0f28 08              ??         08h
    PAGE15::0f29 20              ??         20h     
    PAGE15::0f2a 24              ??         24h    $
    PAGE15::0f2b 2a              ??         2Ah    *
    PAGE15::0f2c 4b              ??         4Bh    K
    PAGE15::0f2d 6e              ??         6Eh    n
    PAGE15::0f2e ad              ??         ADh
    PAGE15::0f2f b1              ??         B1h
    PAGE15::0f30 cb              ??         CBh
    PAGE15::0f31 cb              ??         CBh
    PAGE15::0f32 08              ??         08h
    PAGE15::0f33 0a              ??         0Ah
    PAGE15::0f34 0e              ??         0Eh
    PAGE15::0f35 12              ??         12h
    PAGE15::0f36 14              ??         14h
    PAGE15::0f37 18              ??         18h
    PAGE15::0f38 29              ??         29h    )
    PAGE15::0f39 2e              ??         2Eh    .
    PAGE15::0f3a 38              ??         38h    8
    PAGE15::0f3b 47              ??         47h    G
    PAGE15::0f3c 64              ??         64h    d
    PAGE15::0f3d 8f              ??         8Fh
    PAGE15::0f3e d2              ??         D2h
    PAGE15::0f3f db              ??         DBh
    PAGE15::0f40 07              ??         07h
    PAGE15::0f41 0b              ??         0Bh
    PAGE15::0f42 10              ??         10h
    PAGE15::0f43 12              ??         12h
    PAGE15::0f44 17              ??         17h
    PAGE15::0f45 26              ??         26h    &
    PAGE15::0f46 2a              ??         2Ah    *
    PAGE15::0f47 2e              ??         2Eh    .
    PAGE15::0f48 34              ??         34h    4
    PAGE15::0f49 41              ??         41h    A
    PAGE15::0f4a 4f              ??         4Fh    O
    PAGE15::0f4b 63              ??         63h    c
    PAGE15::0f4c 80              ??         80h
    PAGE15::0f4d 8a              ??         8Ah
    PAGE15::0f4e c9              ??         C9h
    PAGE15::0f4f ce              ??         CEh
    PAGE15::0f50 12              ??         12h
    PAGE15::0f51 15              ??         15h
    PAGE15::0f52 1a              ??         1Ah
    PAGE15::0f53 29              ??         29h    )
    PAGE15::0f54 2c              ??         2Ch    ,
    PAGE15::0f55 2f              ??         2Fh    /
    PAGE15::0f56 36              ??         36h    6
    PAGE15::0f57 3c              ??         3Ch    <
    PAGE15::0f58 49              ??         49h    I
    PAGE15::0f59 54              ??         54h    T
    PAGE15::0f5a 69              ??         69h    i
    PAGE15::0f5b 7b              ??         7Bh    {
    PAGE15::0f5c 96              ??         96h
    PAGE15::0f5d bc              ??         BCh
    PAGE15::0f5e cb              ??         CBh
    PAGE15::0f5f d0              ??         D0h
    PAGE15::0f60 27              ??         27h    '
    PAGE15::0f61 30              ??         30h    0
    PAGE15::0f62 32              ??         32h    2
    PAGE15::0f63 35              ??         35h    5
    PAGE15::0f64 39              ??         39h    9
    PAGE15::0f65 42              ??         42h    B
    PAGE15::0f66 49              ??         49h    I
    PAGE15::0f67 50              ??         50h    P
    PAGE15::0f68 5f              ??         5Fh    _
    PAGE15::0f69 6c              ??         6Ch    l
    PAGE15::0f6a 81              ??         81h
    PAGE15::0f6b 93              ??         93h
    PAGE15::0f6c b0              ??         B0h
    PAGE15::0f6d da              ??         DAh
    PAGE15::0f6e d5              ??         D5h
    PAGE15::0f6f d9              ??         D9h
    PAGE15::0f70 36              ??         36h    6
    PAGE15::0f71 3e              ??         3Eh    >
    PAGE15::0f72 42              ??         42h    B
    PAGE15::0f73 47              ??         47h    G
    PAGE15::0f74 4d              ??         4Dh    M
    PAGE15::0f75 55              ??         55h    U
    PAGE15::0f76 60              ??         60h    `
    PAGE15::0f77 68              ??         68h    h
    PAGE15::0f78 76              ??         76h    v
    PAGE15::0f79 84              ??         84h
    PAGE15::0f7a 9c              ??         9Ch
    PAGE15::0f7b ae              ??         AEh
    PAGE15::0f7c c3              ??         C3h
    PAGE15::0f7d c1              ??         C1h
    PAGE15::0f7e d8              ??         D8h
    PAGE15::0f7f dc              ??         DCh
    PAGE15::0f80 42              ??         42h    B
    PAGE15::0f81 4f              ??         4Fh    O
    PAGE15::0f82 57              ??         57h    W
    PAGE15::0f83 59              ??         59h    Y
    PAGE15::0f84 61              ??         61h    a
    PAGE15::0f85 6c              ??         6Ch    l
    PAGE15::0f86 76              ??         76h    v
    PAGE15::0f87 80              ??         80h
    PAGE15::0f88 90              ??         90h
    PAGE15::0f89 a0              ??         A0h
    PAGE15::0f8a b7              ??         B7h
    PAGE15::0f8b c6              ??         C6h
    PAGE15::0f8c c3              ??         C3h
    PAGE15::0f8d c5              ??         C5h
    PAGE15::0f8e dc              ??         DCh
    PAGE15::0f8f e0              ??         E0h
    PAGE15::0f90 50              ??         50h    P
    PAGE15::0f91 63              ??         63h    c
    PAGE15::0f92 6a              ??         6Ah    j
    PAGE15::0f93 71              ??         71h    q
    PAGE15::0f94 77              ??         77h    w
    PAGE15::0f95 84              ??         84h
    PAGE15::0f96 8f              ??         8Fh
    PAGE15::0f97 9a              ??         9Ah
    PAGE15::0f98 ab              ??         ABh
    PAGE15::0f99 bb              ??         BBh
    PAGE15::0f9a cc              ??         CCh
    PAGE15::0f9b c6              ??         C6h
    PAGE15::0f9c c3              ??         C3h
    PAGE15::0f9d c1              ??         C1h
    PAGE15::0f9e e0              ??         E0h
    PAGE15::0f9f e3              ??         E3h
    PAGE15::0fa0 6b              ??         6Bh    k
    PAGE15::0fa1 7d              ??         7Dh    }
    PAGE15::0fa2 83              ??         83h
    PAGE15::0fa3 8a              ??         8Ah
    PAGE15::0fa4 92              ??         92h
    PAGE15::0fa5 9f              ??         9Fh
    PAGE15::0fa6 ab              ??         ABh
    PAGE15::0fa7 b7              ??         B7h
    PAGE15::0fa8 c8              ??         C8h
    PAGE15::0fa9 d1              ??         D1h
    PAGE15::0faa d2              ??         D2h
    PAGE15::0fab c6              ??         C6h
    PAGE15::0fac c3              ??         C3h
    PAGE15::0fad c1              ??         C1h
    PAGE15::0fae e4              ??         E4h
    PAGE15::0faf e7              ??         E7h
    PAGE15::0fb0 88              ??         88h
    PAGE15::0fb1 9a              ??         9Ah
    PAGE15::0fb2 9f              ??         9Fh
    PAGE15::0fb3 a9              ??         A9h
    PAGE15::0fb4 b0              ??         B0h
    PAGE15::0fb5 bd              ??         BDh
    PAGE15::0fb6 c8              ??         C8h
    PAGE15::0fb7 cf              ??         CFh
    PAGE15::0fb8 d2              ??         D2h
    PAGE15::0fb9 d8              ??         D8h
    PAGE15::0fba c9              ??         C9h
    PAGE15::0fbb c6              ??         C6h
    PAGE15::0fbc c3              ??         C3h
    PAGE15::0fbd c1              ??         C1h
    PAGE15::0fbe e8              ??         E8h
    PAGE15::0fbf e9              ??         E9h
    PAGE15::0fc0 a3              ??         A3h
    PAGE15::0fc1 b4              ??         B4h
    PAGE15::0fc2 bb              ??         BBh
    PAGE15::0fc3 c6              ??         C6h
    PAGE15::0fc4 cb              ??         CBh
    PAGE15::0fc5 d8              ??         D8h
    PAGE15::0fc6 d6              ??         D6h
    PAGE15::0fc7 d5              ??         D5h
    PAGE15::0fc8 d8              ??         D8h
    PAGE15::0fc9 cf              ??         CFh
    PAGE15::0fca c9              ??         C9h
    PAGE15::0fcb c6              ??         C6h
    PAGE15::0fcc c3              ??         C3h
    PAGE15::0fcd c1              ??         C1h
    PAGE15::0fce eb              ??         EBh
    PAGE15::0fcf ec              ??         ECh
    PAGE15::0fd0 c2              ??         C2h
    PAGE15::0fd1 ca              ??         CAh
    PAGE15::0fd2 d4              ??         D4h
    PAGE15::0fd3 db              ??         DBh
    PAGE15::0fd4 e0              ??         E0h
    PAGE15::0fd5 e5              ??         E5h
    PAGE15::0fd6 d0              ??         D0h
    PAGE15::0fd7 d2              ??         D2h
    PAGE15::0fd8 d1              ??         D1h
    PAGE15::0fd9 cf              ??         CFh
    PAGE15::0fda c9              ??         C9h
    PAGE15::0fdb c6              ??         C6h
    PAGE15::0fdc c3              ??         C3h
    PAGE15::0fdd c1              ??         C1h
    PAGE15::0fde f3              ??         F3h
    PAGE15::0fdf f4              ??         F4h
    PAGE15::0fe0 c4              ??         C4h
    PAGE15::0fe1 d2              ??         D2h
    PAGE15::0fe2 e0              ??         E0h
    PAGE15::0fe3 f0              ??         F0h
    PAGE15::0fe4 da              ??         DAh
    PAGE15::0fe5 d8              ??         D8h
    PAGE15::0fe6 d5              ??         D5h
    PAGE15::0fe7 d2              ??         D2h
    PAGE15::0fe8 d1              ??         D1h
    PAGE15::0fe9 cf              ??         CFh
    PAGE15::0fea c9              ??         C9h
    PAGE15::0feb c6              ??         C6h
    PAGE15::0fec c3              ??         C3h
    PAGE15::0fed c1              ??         C1h
    PAGE15::0fee f4              ??         F4h
    PAGE15::0fef f5              ??         F5h
    PAGE15::0ff0 cc              ??         CCh
    PAGE15::0ff1 d1              ??         D1h
    PAGE15::0ff2 d9              ??         D9h
    PAGE15::0ff3 da              ??         DAh
    PAGE15::0ff4 da              ??         DAh
    PAGE15::0ff5 d8              ??         D8h
    PAGE15::0ff6 d5              ??         D5h
    PAGE15::0ff7 d2              ??         D2h
    PAGE15::0ff8 d1              ??         D1h
    PAGE15::0ff9 cf              ??         CFh
    PAGE15::0ffa c9              ??         C9h
    PAGE15::0ffb c6              ??         C6h
    PAGE15::0ffc c3              ??         C3h
    PAGE15::0ffd c1              ??         C1h
    PAGE15::0ffe f5              ??         F5h
    PAGE15::0fff f6              ??         F6h
